
soft-logicbrain2018.elf:     file format elf32-littlenios2
soft-logicbrain2018.elf
architecture: nios2:r1, flags 0x00000112:
EXEC_P, HAS_SYMS, D_PAGED
start address 0x4000019c

Program Header:
    LOAD off    0x00001000 vaddr 0x00000000 paddr 0x00000000 align 2**12
         filesz 0x00000020 memsz 0x00000020 flags r-x
    LOAD off    0x00001020 vaddr 0x00000020 paddr 0x40000000 align 2**12
         filesz 0x0000019c memsz 0x0000019c flags r-x
    LOAD off    0x0000219c vaddr 0x4000019c paddr 0x4000019c align 2**12
         filesz 0x00014fa0 memsz 0x00014fa0 flags r-x
    LOAD off    0x0001713c vaddr 0x4001513c paddr 0x40016cc8 align 2**12
         filesz 0x00001b8c memsz 0x00001b8c flags rw-
    LOAD off    0x00019854 vaddr 0x40018854 paddr 0x40018854 align 2**12
         filesz 0x00000000 memsz 0x0004ba78 flags rw-

Sections:
Idx Name          Size      VMA       LMA       File off  Algn
  0 .entry        00000020  00000000  00000000  00001000  2**5
                  CONTENTS, ALLOC, LOAD, READONLY, CODE
  1 .exceptions   0000019c  00000020  40000000  00001020  2**2
                  CONTENTS, ALLOC, LOAD, READONLY, CODE
  2 .text         00014920  4000019c  4000019c  0000219c  2**2
                  CONTENTS, ALLOC, LOAD, READONLY, CODE
  3 .rodata       00000680  40014abc  40014abc  00016abc  2**2
                  CONTENTS, ALLOC, LOAD, READONLY, DATA
  4 .rwdata       00001b8c  4001513c  40016cc8  0001713c  2**2
                  CONTENTS, ALLOC, LOAD, DATA, SMALL_DATA
  5 .bss          0004ba78  40018854  40018854  00019854  2**2
                  ALLOC, SMALL_DATA
  6 .onchip_memory2_FPGA 00000000  000001bc  000001bc  00018cc8  2**0
                  CONTENTS
  7 .mem_if_ddr3_emif_FPGA 00000000  400642cc  400642cc  00018cc8  2**0
                  CONTENTS
  8 .comment      00000023  00000000  00000000  00018cc8  2**0
                  CONTENTS, READONLY
  9 .debug_aranges 000013f8  00000000  00000000  00018cf0  2**3
                  CONTENTS, READONLY, DEBUGGING
 10 .debug_info   000334b0  00000000  00000000  0001a0e8  2**0
                  CONTENTS, READONLY, DEBUGGING
 11 .debug_abbrev 0000e0c7  00000000  00000000  0004d598  2**0
                  CONTENTS, READONLY, DEBUGGING
 12 .debug_line   00010225  00000000  00000000  0005b65f  2**0
                  CONTENTS, READONLY, DEBUGGING
 13 .debug_frame  000036e8  00000000  00000000  0006b884  2**2
                  CONTENTS, READONLY, DEBUGGING
 14 .debug_str    0000704c  00000000  00000000  0006ef6c  2**0
                  CONTENTS, READONLY, DEBUGGING
 15 .debug_loc    0001bc12  00000000  00000000  00075fb8  2**0
                  CONTENTS, READONLY, DEBUGGING
 16 .debug_alt_sim_info 00000030  00000000  00000000  00091bcc  2**2
                  CONTENTS, READONLY, DEBUGGING
 17 .debug_ranges 00001d28  00000000  00000000  00091c00  2**3
                  CONTENTS, READONLY, DEBUGGING
 18 .thread_model 00000003  00000000  00000000  000993ec  2**0
                  CONTENTS, READONLY
 19 .cpu          0000000c  00000000  00000000  000993ef  2**0
                  CONTENTS, READONLY
 20 .qsys         00000001  00000000  00000000  000993fb  2**0
                  CONTENTS, READONLY
 21 .simulation_enabled 00000001  00000000  00000000  000993fc  2**0
                  CONTENTS, READONLY
 22 .sysid_hash   00000004  00000000  00000000  000993fd  2**0
                  CONTENTS, READONLY
 23 .sysid_base   00000004  00000000  00000000  00099401  2**0
                  CONTENTS, READONLY
 24 .sysid_time   00000004  00000000  00000000  00099405  2**0
                  CONTENTS, READONLY
 25 .stderr_dev   0000000e  00000000  00000000  00099409  2**0
                  CONTENTS, READONLY
 26 .stdin_dev    0000000e  00000000  00000000  00099417  2**0
                  CONTENTS, READONLY
 27 .stdout_dev   0000000e  00000000  00000000  00099425  2**0
                  CONTENTS, READONLY
 28 .sopc_system_name 0000000a  00000000  00000000  00099433  2**0
                  CONTENTS, READONLY
 29 .quartus_project_dir 0000001c  00000000  00000000  0009943d  2**0
                  CONTENTS, READONLY
 30 .jdi          0000965d  00000000  00000000  00099459  2**0
                  CONTENTS, READONLY
 31 .sopcinfo     0036a267  00000000  00000000  000a2ab6  2**0
                  CONTENTS, READONLY
SYMBOL TABLE:
00000000 l    d  .entry	00000000 .entry
00000020 l    d  .exceptions	00000000 .exceptions
4000019c l    d  .text	00000000 .text
40014abc l    d  .rodata	00000000 .rodata
4001513c l    d  .rwdata	00000000 .rwdata
40018854 l    d  .bss	00000000 .bss
000001bc l    d  .onchip_memory2_FPGA	00000000 .onchip_memory2_FPGA
400642cc l    d  .mem_if_ddr3_emif_FPGA	00000000 .mem_if_ddr3_emif_FPGA
00000000 l    d  .comment	00000000 .comment
00000000 l    d  .debug_aranges	00000000 .debug_aranges
00000000 l    d  .debug_info	00000000 .debug_info
00000000 l    d  .debug_abbrev	00000000 .debug_abbrev
00000000 l    d  .debug_line	00000000 .debug_line
00000000 l    d  .debug_frame	00000000 .debug_frame
00000000 l    d  .debug_str	00000000 .debug_str
00000000 l    d  .debug_loc	00000000 .debug_loc
00000000 l    d  .debug_alt_sim_info	00000000 .debug_alt_sim_info
00000000 l    d  .debug_ranges	00000000 .debug_ranges
00000000 l    df *ABS*	00000000 ../soft-logicbrain2018_bsp//obj/HAL/src/crt0.o
400001e4 l       .text	00000000 alt_after_alt_main
00000000 l    df *ABS*	00000000 alt_exception_entry.o
00000094 l       .exceptions	00000000 alt_exception_unknown
00000000 l    df *ABS*	00000000 alt_irq_handler.c
00000000 l    df *ABS*	00000000 Image.cpp
00000000 l    df *ABS*	00000000 NN.cpp
00000000 l    df *ABS*	00000000 NNLayer.cpp
40016bfc l     O .rwdata	00000004 _ZZ6MYrandvE4seed
00000000 l    df *ABS*	00000000 VGA.cpp
00000000 l    df *ABS*	00000000 main.cpp
00000000 l    df *ABS*	00000000 eh_personality.cc
400022bc l     F .text	00000058 _ZL12read_sleb128PKhPl
40002314 l     F .text	00000088 _ZL16get_adjusted_ptrPKSt9type_infoS1_PPv
4000239c l     F .text	000000a0 _ZL21size_of_encoded_valueh
4000243c l     F .text	00000210 _ZL28read_encoded_value_with_basehjPKhPj
4000264c l     F .text	00000054 _ZL15get_ttype_entryP16lsda_header_infom
400026a0 l     F .text	000000a8 _ZL20check_exception_specP16lsda_header_infoPKSt9type_infoPvl
40002748 l     F .text	00000088 _ZL21base_of_encoded_valuehP15_Unwind_Context
400027d0 l     F .text	000001d0 _ZL28check_compact_exception_specPKSt9type_infoPvPKhij
400029a0 l     F .text	00000134 _ZL17parse_lsda_headerP15_Unwind_ContextPKhP16lsda_header_info
00000000 l    df *ABS*	00000000 eh_globals.cc
40018858 l     O .bss	00000008 _ZL10eh_globals
00000000 l    df *ABS*	00000000 class_type_info.cc
00000000 l    df *ABS*	00000000 del_op.cc
00000000 l    df *ABS*	00000000 eh_terminate.cc
00000000 l    df *ABS*	00000000 si_class_type_info.cc
00000000 l    df *ABS*	00000000 new_op.cc
00000000 l    df *ABS*	00000000 bad_alloc.cc
00000000 l    df *ABS*	00000000 eh_catch.cc
00000000 l    df *ABS*	00000000 new_opv.cc
00000000 l    df *ABS*	00000000 eh_call.cc
00000000 l    df *ABS*	00000000 del_opv.cc
00000000 l    df *ABS*	00000000 eh_term_handler.cc
00000000 l    df *ABS*	00000000 eh_throw.cc
40003c34 l     F .text	00000044 _ZL23__gxx_exception_cleanup19_Unwind_Reason_CodeP17_Unwind_Exception
00000000 l    df *ABS*	00000000 tinfo.cc
00000000 l    df *ABS*	00000000 eh_alloc.cc
40018864 l     O .bss	00000004 _ZL14emergency_used
400639a4 l     O .bss	00000800 _ZL16emergency_buffer
40018860 l     O .bss	00000004 _ZL15dependents_used
400638a4 l     O .bss	00000100 _ZL17dependents_buffer
00000000 l    df *ABS*	00000000 eh_exception.cc
00000000 l    df *ABS*	00000000 new_handler.cc
40018868 l     O .bss	00000004 _ZN12_GLOBAL__N_113__new_handlerE
00000000 l    df *ABS*	00000000 eh_unex_handler.cc
00000000 l    df *ABS*	00000000 pure.cc
00000000 l    df *ABS*	00000000 s_log2.c
00000000 l    df *ABS*	00000000 w_log.c
00000000 l    df *ABS*	00000000 e_log.c
40016c2c l     O .rwdata	00000008 ln2_hi
40016c34 l     O .rwdata	00000008 ln2_lo
40016c3c l     O .rwdata	00000008 two54
40016c44 l     O .rwdata	00000008 Lg1
40016c4c l     O .rwdata	00000008 Lg2
40016c54 l     O .rwdata	00000008 Lg3
40016c5c l     O .rwdata	00000008 Lg4
40016c64 l     O .rwdata	00000008 Lg5
40016c6c l     O .rwdata	00000008 Lg6
40016c74 l     O .rwdata	00000008 Lg7
40016c7c l     O .rwdata	00000008 zero
00000000 l    df *ABS*	00000000 s_fpclassify.c
00000000 l    df *ABS*	00000000 s_lib_ver.c
00000000 l    df *ABS*	00000000 s_matherr.c
00000000 l    df *ABS*	00000000 s_nan.c
00000000 l    df *ABS*	00000000 lib2-divmod.c
40005080 l     F .text	0000006c udivmodsi4
00000000 l    df *ABS*	00000000 adddf3.c
00000000 l    df *ABS*	00000000 divdf3.c
00000000 l    df *ABS*	00000000 eqdf2.c
00000000 l    df *ABS*	00000000 gedf2.c
00000000 l    df *ABS*	00000000 ledf2.c
00000000 l    df *ABS*	00000000 muldf3.c
00000000 l    df *ABS*	00000000 subdf3.c
00000000 l    df *ABS*	00000000 fixdfsi.c
00000000 l    df *ABS*	00000000 floatsidf.c
00000000 l    df *ABS*	00000000 extendsfdf2.c
00000000 l    df *ABS*	00000000 truncdfsf2.c
00000000 l    df *ABS*	00000000 unwind-sjlj.c
4000794c l     F .text	00000118 _Unwind_ForcedUnwind_Phase2
4001886c l     O .bss	00000004 fc_static
40007a64 l     F .text	000000c0 _Unwind_RaiseException_Phase2
40007b24 l     F .text	00000030 uw_install_context.isra.1
00000000 l    df *ABS*	00000000 libgcc2.c
00000000 l    df *ABS*	00000000 libgcc2.c
00000000 l    df *ABS*	00000000 abort.c
00000000 l    df *ABS*	00000000 errno.c
00000000 l    df *ABS*	00000000 exit.c
00000000 l    df *ABS*	00000000 impure.c
4001513c l     O .rwdata	00000424 impure_data
00000000 l    df *ABS*	00000000 malloc.c
00000000 l    df *ABS*	00000000 mallocr.c
00000000 l    df *ABS*	00000000 memset.c
00000000 l    df *ABS*	00000000 printf.c
00000000 l    df *ABS*	00000000 putchar.c
00000000 l    df *ABS*	00000000 puts.c
00000000 l    df *ABS*	00000000 rand.c
00000000 l    df *ABS*	00000000 sbrkr.c
00000000 l    df *ABS*	00000000 signal.c
00000000 l    df *ABS*	00000000 signalr.c
00000000 l    df *ABS*	00000000 strcmp.c
00000000 l    df *ABS*	00000000 strlen.c
00000000 l    df *ABS*	00000000 vfprintf.c
40014f86 l     O .rodata	00000010 zeroes.4181
40014f96 l     O .rodata	00000010 blanks.4180
00000000 l    df *ABS*	00000000 wsetup.c
00000000 l    df *ABS*	00000000 __call_atexit.c
00000000 l    df *ABS*	00000000 dtoa.c
4000b168 l     F .text	00000200 quorem
00000000 l    df *ABS*	00000000 fflush.c
00000000 l    df *ABS*	00000000 findfp.c
4000cce8 l     F .text	00000008 __fp_lock
4000ccf0 l     F .text	00000008 __fp_unlock
4000cd04 l     F .text	000001a0 __sinit.part.1
00000000 l    df *ABS*	00000000 mallocr.c
00000000 l    df *ABS*	00000000 fvwrite.c
00000000 l    df *ABS*	00000000 fwalk.c
00000000 l    df *ABS*	00000000 int_errno.c
00000000 l    df *ABS*	00000000 locale.c
40015988 l     O .rwdata	00000020 lc_ctype_charset
40015968 l     O .rwdata	00000020 lc_message_charset
400159a8 l     O .rwdata	00000038 lconv
00000000 l    df *ABS*	00000000 makebuf.c
00000000 l    df *ABS*	00000000 memchr.c
00000000 l    df *ABS*	00000000 memcpy.c
00000000 l    df *ABS*	00000000 memmove.c
00000000 l    df *ABS*	00000000 mprec.c
40014fc4 l     O .rodata	0000000c p05.2678
00000000 l    df *ABS*	00000000 putc.c
00000000 l    df *ABS*	00000000 mallocr.c
00000000 l    df *ABS*	00000000 stdio.c
00000000 l    df *ABS*	00000000 vfprintf.c
4000f894 l     F .text	000000fc __sprint_r.part.0
400150f8 l     O .rodata	00000010 blanks.4125
400150e8 l     O .rodata	00000010 zeroes.4126
00000000 l    df *ABS*	00000000 wbuf.c
00000000 l    df *ABS*	00000000 writer.c
00000000 l    df *ABS*	00000000 closer.c
00000000 l    df *ABS*	00000000 mallocr.c
00000000 l    df *ABS*	00000000 fclose.c
00000000 l    df *ABS*	00000000 fputwc.c
00000000 l    df *ABS*	00000000 fstatr.c
00000000 l    df *ABS*	00000000 isattyr.c
00000000 l    df *ABS*	00000000 lseekr.c
00000000 l    df *ABS*	00000000 readr.c
00000000 l    df *ABS*	00000000 wcrtomb.c
00000000 l    df *ABS*	00000000 wctomb_r.c
00000000 l    df *ABS*	00000000 libgcc2.c
00000000 l    df *ABS*	00000000 libgcc2.c
00000000 l    df *ABS*	00000000 libgcc2.c
00000000 l    df *ABS*	00000000 floatunsidf.c
00000000 l    df *ABS*	00000000 alt_close.c
400122b4 l     F .text	00000050 alt_get_errno
00000000 l    df *ABS*	00000000 alt_dev.c
400123d4 l     F .text	0000002c alt_dev_null_write
00000000 l    df *ABS*	00000000 alt_errno.c
00000000 l    df *ABS*	00000000 alt_exit.c
00000000 l    df *ABS*	00000000 alt_fstat.c
40012434 l     F .text	00000050 alt_get_errno
00000000 l    df *ABS*	00000000 alt_getpid.c
00000000 l    df *ABS*	00000000 alt_isatty.c
40012554 l     F .text	00000050 alt_get_errno
00000000 l    df *ABS*	00000000 alt_kill.c
40012648 l     F .text	00000050 alt_get_errno
00000000 l    df *ABS*	00000000 alt_load.c
400127c8 l     F .text	00000064 alt_load_section
00000000 l    df *ABS*	00000000 alt_lseek.c
400128ac l     F .text	00000050 alt_get_errno
00000000 l    df *ABS*	00000000 alt_main.c
00000000 l    df *ABS*	00000000 alt_malloc_lock.c
00000000 l    df *ABS*	00000000 alt_read.c
40012a88 l     F .text	00000050 alt_get_errno
00000000 l    df *ABS*	00000000 alt_release_fd.c
00000000 l    df *ABS*	00000000 alt_sbrk.c
40016cb8 l     O .rwdata	00000004 heap_end
00000000 l    df *ABS*	00000000 alt_tick.c
00000000 l    df *ABS*	00000000 alt_write.c
40012e80 l     F .text	00000050 alt_get_errno
00000000 l    df *ABS*	00000000 alt_sys_init.c
40012fc8 l     F .text	00000038 alt_dev_reg
40015b88 l     O .rwdata	00001060 jtag_uart_FPGA
00000000 l    df *ABS*	00000000 altera_avalon_jtag_uart_fd.c
00000000 l    df *ABS*	00000000 altera_avalon_jtag_uart_init.c
400132b8 l     F .text	00000204 altera_avalon_jtag_uart_irq
400134bc l     F .text	000000a8 altera_avalon_jtag_uart_timeout
00000000 l    df *ABS*	00000000 altera_avalon_jtag_uart_ioctl.c
00000000 l    df *ABS*	00000000 altera_avalon_jtag_uart_read.c
00000000 l    df *ABS*	00000000 altera_avalon_jtag_uart_write.c
00000000 l    df *ABS*	00000000 altera_avalon_timer_sc.c
40013adc l     F .text	00000074 alt_avalon_timer_sc_irq
00000000 l    df *ABS*	00000000 alt_alarm_start.c
00000000 l    df *ABS*	00000000 alt_dcache_flush_all.c
00000000 l    df *ABS*	00000000 alt_dev_llist_insert.c
40013d5c l     F .text	00000050 alt_get_errno
00000000 l    df *ABS*	00000000 alt_do_ctors.c
00000000 l    df *ABS*	00000000 alt_do_dtors.c
00000000 l    df *ABS*	00000000 alt_icache_flush_all.c
00000000 l    df *ABS*	00000000 alt_iic.c
00000000 l    df *ABS*	00000000 alt_iic_isr_register.c
00000000 l    df *ABS*	00000000 alt_io_redirect.c
40014208 l     F .text	000000c0 alt_open_fd
00000000 l    df *ABS*	00000000 alt_irq_vars.c
00000000 l    df *ABS*	00000000 alt_open.c
40014340 l     F .text	00000050 alt_get_errno
40014390 l     F .text	000000cc alt_file_locked
00000000 l    df *ABS*	00000000 altera_nios2_qsys_irq.c
00000000 l    df *ABS*	00000000 alt_find_dev.c
00000000 l    df *ABS*	00000000 alt_find_file.c
00000000 l    df *ABS*	00000000 alt_get_fd.c
00000000 l    df *ABS*	00000000 alt_icache_flush.c
00000000 l    df *ABS*	00000000 atexit.c
00000000 l    df *ABS*	00000000 memcmp.c
00000000 l    df *ABS*	00000000 __atexit.c
40003e94 g     F .text	00000044 __cxa_free_exception
40008894 g     F .text	00000018 putchar
40003d98 g     F .text	00000008 _ZNKSt9type_info15__is_function_pEv
4000eed8 g     F .text	00000074 _mprec_log10
400035d4 g     F .text	00000018 _ZSt10unexpectedv
4000efc4 g     F .text	0000008c __any_on
40011354 g     F .text	00000054 _isatty_r
40014fd0 g     O .rodata	00000028 __mprec_tinytens
400129d0 g     F .text	00000078 alt_main
400088ac g     F .text	000000b8 _puts_r
400641cc g     O .bss	00000100 alt_irq
40003fd4 g     F .text	00000004 _ZN10__cxxabiv115__forced_unwindD1Ev
40003b44 g     F .text	00000094 _Znaj
400113a8 g     F .text	0000005c _lseek_r
400040c4 g     F .text	000001f4 log
40007be0 g     F .text	00000020 .hidden _Unwind_GetIPInfo
40016cc8 g       *ABS*	00000000 __flash_rwdata_start
4000162c g     F .text	00000038 _Z6MYrandv
40006314 g     F .text	00000084 .hidden __eqdf2
40003d08 g     F .text	00000084 __cxa_rethrow
40016bf4  w    O .rwdata	00000008 _ZTI7NNLayer
40007b6c g     F .text	00000014 .hidden _Unwind_SjLj_Unregister
40003610 g     F .text	00000014 _ZSt14set_unexpectedPFvvE
40007bd0 g     F .text	00000010 .hidden _Unwind_GetIP
400642cc g       *ABS*	00000000 __alt_heap_start
40008cec g     F .text	00000058 _kill_r
40003974 g     F .text	00000010 _ZNSt9bad_allocD2Ev
40008850 g     F .text	0000003c printf
40011460 g     F .text	0000009c _wcrtomb_r
40008ab0 g     F .text	00000084 _signal_r
4000f830 g     F .text	0000005c __sseek
4000d038 g     F .text	00000010 __sinit
40010d28 g     F .text	00000154 __swbuf_r
40003f6c g     F .text	00000040 __cxa_free_dependent_exception
40003634 g     F .text	00000010 _ZN10__cxxabiv120__si_class_type_infoD2Ev
4000dab0 g     F .text	0000007c _setlocale_r
40014c40  w    O .rodata	00000025 _ZTSN10__cxxabiv120__si_class_type_infoE
4000cea4 g     F .text	00000064 __sfmoreglue
40012a68 g     F .text	00000020 __malloc_unlock
40003fd4 g     F .text	00000004 _ZN10__cxxabiv115__forced_unwindD2Ev
40003b24 g     F .text	00000020 _ZSt18uncaught_exceptionv
40004028 g     F .text	00000020 __cxa_deleted_virtual
40014b04  w    O .rodata	00000010 _ZTV2NN
4000df68 g     F .text	0000015c memmove
40001b04 g     F .text	00000048 _ZN7NNLayerD1Ev
40003fac g     F .text	00000004 _ZNSt9exceptionD2Ev
4000d020 g     F .text	00000018 _cleanup
4000e0c4 g     F .text	000000a8 _Balloc
400001e8 g     F .text	00000038 _ZN5ImageC2Ev
40000220 g     F .text	00000048 _ZN5ImageC2Eii
40006398 g     F .text	000000e0 .hidden __gtdf2
40014dbc  w    O .rodata	00000014 _ZTVSt13bad_exception
40007ee8 g     F .text	00000010 __errno
00000000 g     F .entry	0000001c __reset
40002284  w    F .text	00000038 _ZN3VGA15send_to_displayEv
00000000 g       *ABS*	00000000 __alt_mem_onchip_memory2_FPGA
40000834 g     F .text	00000304 _ZN5Image8apply_NNEP2NNii
40007c1c g     F .text	00000008 .hidden _Unwind_GetRegionStart
400014a0 g     F .text	00000058 _ZN7NNLayerC2Ev
40000000 g       *ABS*	00000000 __flash_exceptions_start
400112fc g     F .text	00000058 _fstat_r
4001887c g     O .bss	00000004 errno
40001ec4 g     F .text	00000068 _ZN3VGA3clrEv
4000f7ac g     F .text	00000008 __seofread
40007df8 g     F .text	00000074 .hidden _Unwind_Backtrace
40018854 g     O .bss	00000004 pVGA
40018890 g     O .bss	00000004 alt_argv
4001ebe8 g       *ABS*	00000000 _gp
40012534 g     F .text	00000020 getpid
40001548 g     F .text	000000e4 _ZN7NNLayer4initEii
40002fd4 g     F .text	00000234 __cxa_call_unexpected
400039b8 g     F .text	00000008 __cxa_get_exception_ptr
40000d88 g     F .text	00000218 _ZN2NNC1Ei
40015a08 g     O .rwdata	00000180 alt_fd_list
4000888c g     F .text	00000008 _putchar_r
40007d0c g     F .text	00000044 .hidden _Unwind_SjLj_ForcedUnwind
40007b9c g     F .text	00000018 .hidden _Unwind_GetCFA
400035ec g     F .text	00000014 _ZSt13set_terminatePFvvE
400145d4 g     F .text	00000090 alt_find_dev
4000de30 g     F .text	00000138 memcpy
40001238 g     F .text	00000130 _ZN2NN17getMaxOutputValueEv
40003ed8 g     F .text	00000094 __cxa_allocate_dependent_exception
4000ccf8 g     F .text	0000000c _cleanup_r
40003298 g     F .text	00000018 _ZNK10__cxxabiv117__class_type_info20__do_find_public_srcEiPKvPKS0_S2_
400075d4 g     F .text	000000d0 .hidden __floatsidf
400142c8 g     F .text	00000078 alt_io_redirect
40006478 g     F .text	000000e0 .hidden __ltdf2
40014abc g       *ABS*	00000000 __DTOR_END__
400032b0 g     F .text	00000010 _ZN10__cxxabiv117__class_type_infoD1Ev
40008964 g     F .text	00000014 puts
40000720 g     F .text	0000004c _ZN5Image12source_pixelEii
40000cbc g     F .text	00000050 _ZN5ImageD1Ev
40004ec0 g     F .text	00000104 __fpclassifyd
4000ee34 g     F .text	000000a4 __ratio
40000b38 g     F .text	000000d8 _ZN5Image13printToScreenEiiP3VGA
40010d04 g     F .text	00000024 __vfiprintf_internal
4000196c g     F .text	00000198 _ZN7NNLayer12make_ternaryEv
40000fe8 g     F .text	00000038 _ZN2NND0Ev
400136b8 g     F .text	0000020c altera_avalon_jtag_uart_read
40007f30 g     F .text	00000014 malloc
40008824 g     F .text	0000002c _printf_r
4000519c g     F .text	00000008 .hidden __udivsi3
400125a4 g     F .text	000000a4 isatty
40008b34 g     F .text	000000bc _raise_r
40015020 g     O .rodata	000000c8 __mprec_tens
4000db2c g     F .text	0000000c __locale_charset
4001482c g     F .text	0000008c alt_icache_flush
40018878 g     O .bss	00000004 __malloc_top_pad
40008d44 g     F .text	00000004 _getpid_r
40016c98 g     O .rwdata	00000004 __mb_cur_max
4000db5c g     F .text	0000000c _localeconv_r
4000e4c4 g     F .text	0000003c __i2b
4000d49c g     F .text	000004a4 __sfvwrite_r
40003360 g     F .text	000000b8 _ZNK10__cxxabiv117__class_type_info10__do_catchEPKSt9type_infoPPvj
40008bf0 g     F .text	000000a8 __sigtramp_r
400089f4 g     F .text	00000054 _sbrk_r
40014cf0  w    O .rodata	00000020 _ZTVSt9type_info
40011404 g     F .text	0000005c _read_r
40003fb4 g     F .text	0000000c _ZNKSt9exception4whatEv
40016cb0 g     O .rwdata	00000004 alt_max_fd
4001100c g     F .text	00000100 _fclose_r
40014cc0  w    O .rodata	0000000c _ZTISt9bad_alloc
4000ccb8 g     F .text	00000030 fflush
40018874 g     O .bss	00000004 __malloc_max_sbrked_mem
400076a4 g     F .text	00000110 .hidden __extendsfdf2
400051ac g     F .text	0000089c .hidden __adddf3
40014c74  w    O .rodata	0000002c _ZTVN10__cxxabiv120__si_class_type_infoE
4000ebdc g     F .text	0000011c __b2d
40011c80 g     F .text	00000590 .hidden __umoddi3
400128fc g     F .text	000000d4 lseek
40016c84 g     O .rwdata	00000004 __fdlib_version
400032f4 g     F .text	0000006c _ZNK10__cxxabiv117__class_type_info11__do_upcastEPKS0_PKvRNS0_15__upcast_resultE
400034e8 g     F .text	00000004 _ZdlPv
40016c88 g     O .rwdata	00000004 _global_impure_ptr
40000268 g     F .text	000000a0 _ZN5Image4initEii
4000f1b8 g     F .text	000005a0 _realloc_r
400642cc g       *ABS*	00000000 __bss_end
40003ff8 g     F .text	00000010 _ZSt15get_new_handlerv
40014118 g     F .text	000000f0 alt_iic_isr_register
400188a4 g     O .bss	0004b000 display
40012d7c g     F .text	00000104 alt_tick
40007b54 g     F .text	00000018 .hidden _Unwind_SjLj_Register
400116c0 g     F .text	000005c0 .hidden __udivdi3
40011120 g     F .text	00000184 _fputwc_r
40014ff8 g     O .rodata	00000028 __mprec_bigtens
4000e2a8 g     F .text	00000104 __s2b
40007ed0 g     F .text	00000018 abort
40016be8  w    O .rwdata	00000008 _ZTI2NN
40012210 g     F .text	000000a4 .hidden __floatunsidf
4000e984 g     F .text	00000060 __mcmp
40003a74 g     F .text	000000b0 __cxa_end_catch
4000d058 g     F .text	00000018 __fp_lock_all
400140cc g     F .text	0000004c alt_ic_irq_enabled
40003fb0 g     F .text	00000004 _ZNSt13bad_exceptionD2Ev
40012ce4 g     F .text	00000098 alt_alarm_stop
400188a0 g     O .bss	00000004 alt_irq_active
400035ac g     F .text	00000018 _ZSt9terminatev
000000ec g     F .exceptions	000000d0 alt_irq_handler
400159e0 g     O .rwdata	00000028 alt_dev_null
40000fa0 g     F .text	00000048 _ZN2NND2Ev
40003fdc g     F .text	00000004 _ZN10__cxxabiv119__foreign_exceptionD2Ev
40000000 g       *ABS*	00000000 __alt_mem_mem_if_ddr3_emif_FPGA
4000176c g     F .text	000001a8 _ZN7NNLayer11random_initEii
40014be4  w    O .rodata	00000022 _ZTSN10__cxxabiv117__class_type_infoE
40013d18 g     F .text	00000044 alt_dcache_flush_all
4000e3ac g     F .text	00000068 __hi0bits
40016c0c  w    O .rwdata	00000008 _ZTISt9exception
4000754c g     F .text	00000088 .hidden __fixdfsi
40016cc8 g       *ABS*	00000000 __ram_rwdata_end
40003d8c g     F .text	00000004 _ZNSt9type_infoD1Ev
40016ca8 g     O .rwdata	00000008 alt_dev_list
40003fdc g     F .text	00000004 _ZN10__cxxabiv119__foreign_exceptionD1Ev
40012ed0 g     F .text	000000f8 write
4000f050 g     F .text	000000a0 _putc_r
40003da8 g     F .text	00000004 _ZNSt9type_infoD0Ev
4001513c g       *ABS*	00000000 __ram_rodata_end
40012484 g     F .text	000000b0 fstat
400014f8 g     F .text	00000050 _ZN7NNLayerC1Eii
40012698 g     F .text	00000130 kill
40006478 g     F .text	000000e0 .hidden __ledf2
40000d0c  w    F .text	0000007c _ZN3VGA15Set_Pixel_ColorEjjj
4000e6fc g     F .text	00000140 __pow5mult
4000f9a8 g     F .text	0000135c ___vfiprintf_internal_r
40018888 g     O .bss	00000004 __nlocale_changed
400051a4 g     F .text	00000008 .hidden __umodsi3
40003da0 g     F .text	00000008 _ZNKSt9type_info11__do_upcastEPKN10__cxxabiv117__class_type_infoEPPv
40003600 g     F .text	00000010 _ZSt13get_terminatev
400642cc g       *ABS*	00000000 end
40007de0 g     F .text	00000018 .hidden _Unwind_DeleteException
40000c10 g     F .text	000000ac _ZN5Image5printEv
400131f4 g     F .text	000000c4 altera_avalon_jtag_uart_init
40003418 g     F .text	000000d0 _ZNK10__cxxabiv117__class_type_info12__do_dyncastEiNS0_10__sub_kindEPKS0_PKvS3_S5_RNS0_16__dyncast_resultE
40014abc g       *ABS*	00000000 __CTOR_LIST__
80000000 g       *ABS*	00000000 __alt_stack_pointer
40013b50 g     F .text	00000088 alt_avalon_timer_sc_init
40007e6c g     F .text	00000064 .hidden __clzsi2
40003220 g     F .text	00000078 _ZNK10__cxxabiv117__class_type_info11__do_upcastEPKS0_PPv
400138c4 g     F .text	00000218 altera_avalon_jtag_uart_write
4000d048 g     F .text	00000004 __sfp_lock_acquire
40014d44  w    O .rodata	00000012 _ZTSSt13bad_exception
400013e0 g     F .text	000000c0 _ZN2NN12printOutputsEv
4000dd48 g     F .text	000000e8 memchr
40008e84 g     F .text	00001ffc ___vfprintf_internal_r
4000d1ac g     F .text	000002f0 _free_r
4000db38 g     F .text	00000010 __locale_mb_cur_max
4000afd4 g     F .text	00000194 __call_exitprocs
40018884 g     O .bss	00000004 __mlocale_changed
40016c90 g     O .rwdata	00000004 __malloc_sbrk_base
4000019c g     F .text	0000004c _start
40018898 g     O .bss	00000004 _alt_tick_rate
40014ce0  w    O .rodata	0000000d _ZTSSt9type_info
40003968 g     F .text	0000000c _ZNKSt9bad_alloc4whatEv
40008990 g     F .text	00000064 rand
40004008 g     F .text	00000020 __cxa_pure_virtual
4000e83c g     F .text	00000148 __lshift
40014ccc  w    O .rodata	00000014 _ZTVSt9bad_alloc
4001889c g     O .bss	00000004 _alt_nticks
40008cac g     F .text	0000001c signal
40012ad8 g     F .text	000000fc read
40013034 g     F .text	0000005c alt_sys_init
40000cbc g     F .text	00000050 _ZN5ImageD2Ev
40014948 g     F .text	00000114 __register_exitproc
40014cb0  w    O .rodata	0000000d _ZTSSt9bad_alloc
40003678 g     F .text	00000160 _ZNK10__cxxabiv120__si_class_type_info12__do_dyncastEiNS_17__class_type_info10__sub_kindEPKS1_PKvS4_S6_RNS1_16__dyncast_resultE
4000e500 g     F .text	000001fc __multiply
40013564 g     F .text	00000068 altera_avalon_jtag_uart_close
4001513c g       *ABS*	00000000 __ram_rwdata_start
40007c3c g     F .text	000000d0 .hidden _Unwind_SjLj_RaiseException
40014abc g       *ABS*	00000000 __ram_rodata_start
400641a4 g     O .bss	00000028 __malloc_current_mallinfo
40007d50 g     F .text	00000044 .hidden _Unwind_SjLj_Resume
4000ecf8 g     F .text	0000013c __d2b
40014de4  w    O .rodata	00000014 _ZTVN10__cxxabiv119__foreign_exceptionE
40003d8c g     F .text	00000004 _ZNSt9type_infoD2Ev
40003fe0 g     F .text	00000004 _ZN10__cxxabiv119__foreign_exceptionD0Ev
40003874 g     F .text	00000084 _ZNK10__cxxabiv120__si_class_type_info11__do_upcastEPKNS_17__class_type_infoEPKvRNS1_15__upcast_resultE
40013090 g     F .text	00000060 altera_avalon_jtag_uart_read_fd
40014778 g     F .text	000000b4 alt_get_fd
40002244  w    F .text	00000040 _ZN3VGAC2Eii
40016c1c  w    O .rwdata	00000008 _ZTIN10__cxxabiv119__foreign_exceptionE
40010ef4 g     F .text	00000054 _close_r
40001b4c g     F .text	00000038 _ZN7NNLayerD0Ev
40016bf0  w    O .rwdata	00000004 _ZTS2NN
400148cc g     F .text	0000007c memcmp
40013150 g     F .text	00000050 altera_avalon_jtag_uart_close_fd
400642cc g       *ABS*	00000000 __alt_stack_base
400131a0 g     F .text	00000054 altera_avalon_jtag_uart_ioctl_fd
40003984 g     F .text	00000034 _ZNSt9bad_allocD0Ev
40003634 g     F .text	00000010 _ZN10__cxxabiv120__si_class_type_infoD1Ev
4000aea4 g     F .text	00000130 __swsetup_r
40007d94 g     F .text	0000004c .hidden _Unwind_SjLj_Resume_or_Rethrow
40005a48 g     F .text	000008cc .hidden __divdf3
4000cf08 g     F .text	00000118 __sfp
4000ef4c g     F .text	00000078 __copybits
40003d90 g     F .text	00000008 _ZNKSt9type_info14__is_pointer_pEv
40015560 g     O .rwdata	00000408 __malloc_av_
4000d054 g     F .text	00000004 __sinit_lock_release
40006558 g     F .text	00000724 .hidden __muldf3
4000f758 g     F .text	00000054 __sread
40014da8  w    O .rodata	00000014 _ZTVSt9exception
40003fd8 g     F .text	00000004 _ZN10__cxxabiv115__forced_unwindD0Ev
40014664 g     F .text	00000114 alt_find_file
40013dac g     F .text	000000a4 alt_dev_llist_insert
40012a48 g     F .text	00000020 __malloc_lock
40012c34 g     F .text	000000b0 sbrk
40014c14  w    O .rodata	0000002c _ZTVN10__cxxabiv117__class_type_infoE
40003c78 g     F .text	00000090 __cxa_throw
4000ca90 g     F .text	00000228 _fflush_r
40007c00 g     F .text	00000010 .hidden _Unwind_SetIP
40010f48 g     F .text	000000c4 _calloc_r
40001bc0 g     F .text	00000124 _ZN7NNLayer9propagateEPs
40018854 g       *ABS*	00000000 __bss_start
40008700 g     F .text	00000124 memset
40001f2c g     F .text	00000318 main
40018894 g     O .bss	00000004 alt_envp
40018870 g     O .bss	00000004 __malloc_max_total_mem
400130f0 g     F .text	00000060 altera_avalon_jtag_uart_write_fd
40010e7c g     F .text	0000001c __swbuf
40008978 g     F .text	00000018 srand
40003208 g     F .text	0000000c __cxa_get_globals_fast
40000480 g     F .text	0000004c _ZN5Image17Get_Fractal_ColorEi
40000fa0 g     F .text	00000048 _ZN2NND1Ev
4000f88c g     F .text	00000008 __sclose
40003c30 g     F .text	00000004 _ZdaPv
40004fc4 g     F .text	00000068 matherr
80000000 g       *ABS*	00000000 __alt_heap_limit
40014b58  w    O .rodata	00000010 _ZTV7NNLayer
4001110c g     F .text	00000014 fclose
400077b4 g     F .text	00000198 .hidden __truncdfsf2
4000b368 g     F .text	00001728 _dtoa_r
40007f58 g     F .text	000007a8 _malloc_r
400115d4 g     F .text	00000030 __ascii_wctomb
40003fc0 g     F .text	0000000c _ZNKSt13bad_exception4whatEv
40016cb4 g     O .rwdata	00000004 alt_errno
40008cc8 g     F .text	00000010 _init_signal
40014c08  w    O .rodata	0000000c _ZTIN10__cxxabiv117__class_type_infoE
4000d940 g     F .text	000000b8 _fwalk
40003fb0 g     F .text	00000004 _ZNSt13bad_exceptionD1Ev
400004cc g     F .text	00000254 _ZN5Image12make_fractalEv
4000f0f0 g     F .text	000000c8 putc
400050ec g     F .text	00000054 .hidden __divsi3
4000d088 g     F .text	00000124 _malloc_trim_r
40014abc g       *ABS*	00000000 __CTOR_END__
40008d48 g     F .text	000000a4 strcmp
40014abc g       *ABS*	00000000 __flash_rodata_start
40014dd0  w    O .rodata	00000014 _ZTVN10__cxxabiv115__forced_unwindE
40014abc g       *ABS*	00000000 __DTOR_LIST__
40001b04 g     F .text	00000048 _ZN7NNLayerD2Ev
40006314 g     F .text	00000084 .hidden __nedf2
40013000 g     F .text	00000034 alt_irq_init
40012bd4 g     F .text	00000060 alt_release_fd
40001664 g     F .text	00000068 _ZN7NNLayer15rand_FloatRangeEff
40003644 g     F .text	00000034 _ZN10__cxxabiv120__si_class_type_infoD0Ev
40002244  w    F .text	00000040 _ZN3VGAC1Eii
40014e3c g     O .rodata	00000100 .hidden __clz_tab
40018880 g     O .bss	00000004 _PathLocale
400148b8 g     F .text	00000014 atexit
40001088 g     F .text	00000078 _ZN2NN9propagateEPs
40010e98 g     F .text	0000005c _write_r
4000039c g     F .text	000000e4 _ZN5Image17Get_Fractal_LevelEff
4000db68 g     F .text	0000001c setlocale
40007c34 g     F .text	00000008 .hidden _Unwind_GetTextRelBase
40003bd8 g     F .text	00000058 __cxa_call_terminate
40016c8c g     O .rwdata	00000004 _impure_ptr
40016c14  w    O .rwdata	00000008 _ZTIN10__cxxabiv115__forced_unwindE
4001888c g     O .bss	00000004 alt_argc
40013eac g     F .text	0000005c _do_dtors
4000db54 g     F .text	00000008 __locale_cjk_lang
400042b8 g     F .text	00000c08 __ieee754_log
40001ce4 g     F .text	00000090 _ZN7NNLayer16print_activationEv
40000308 g     F .text	00000094 _ZN5Image9randomizeEv
400001e8 g     F .text	00000038 _ZN5ImageC1Ev
40003624 g     F .text	00000010 _ZSt14get_unexpectedv
00000020 g       .exceptions	00000000 alt_irq_entry
4000eb7c g     F .text	00000060 __ulp
40007c24 g     F .text	00000008 .hidden _Unwind_FindEnclosingFunction
4000d070 g     F .text	00000018 __fp_unlock_all
40016ca0 g     O .rwdata	00000008 alt_fs_list
40014d84  w    O .rodata	00000024 _ZTSN10__cxxabiv119__foreign_exceptionE
400016cc g     F .text	000000a0 _ZN7NNLayer16makeTernaryExtraEf
40007c10 g     F .text	0000000c .hidden _Unwind_GetLanguageSpecificData
40001020 g     F .text	00000068 _ZN2NN12make_ternaryEv
400039c0 g     F .text	000000b4 __cxa_begin_catch
400032b0 g     F .text	00000010 _ZN10__cxxabiv117__class_type_infoD2Ev
4000502c g     F .text	00000054 nan
400035c4 g     F .text	00000010 _ZN10__cxxabiv112__unexpectedEPFvvE
00000020 g       *ABS*	00000000 __ram_exceptions_start
4000db84 g     F .text	0000000c localeconv
40003fd0 g     F .text	00000004 _ZNSt13bad_exceptionD0Ev
40014b68  w    O .rodata	00000009 _ZTS7NNLayer
40016c00 g     O .rwdata	00000004 _ZN10__cxxabiv119__terminate_handlerE
40013f38 g     F .text	00000050 alt_ic_isr_register
40003df0 g     F .text	000000a4 __cxa_allocate_exception
4000076c g     F .text	000000c8 _ZN5Image7make_bwEv
40014c68  w    O .rodata	0000000c _ZTIN10__cxxabiv120__si_class_type_infoE
40003fe4 g     F .text	00000014 _ZSt15set_new_handlerPFvvE
40016cc8 g       *ABS*	00000000 _edata
400014a0 g     F .text	00000058 _ZN7NNLayerC1Ev
400642cc g       *ABS*	00000000 _end
40016c24 g     O .rwdata	00000001 _ZSt7nothrow
40002ad4 g     F .text	00000500 __gxx_personality_sj0
000001bc g       *ABS*	00000000 __ram_exceptions_end
400135cc g     F .text	000000ec altera_avalon_jtag_uart_ioctl
40003fac g     F .text	00000004 _ZNSt9exceptionD1Ev
40014028 g     F .text	000000a4 alt_ic_irq_disable
4000f7b4 g     F .text	0000007c __swrite
400038f8 g     F .text	00000070 _Znwj
40016c94 g     O .rwdata	00000004 __malloc_trim_threshold
400145b4 g     F .text	00000020 altera_nios2_qsys_irq_init
4000db48 g     F .text	0000000c __locale_msgcharset
40007ef8 g     F .text	00000038 exit
40007bb4 g     F .text	0000001c .hidden _Unwind_SetGR
4000d9f8 g     F .text	000000b8 _fwalk_reent
400037d8 g     F .text	0000009c _ZNK10__cxxabiv120__si_class_type_info20__do_find_public_srcEiPKvPKNS_17__class_type_infoES2_
40004048 g     F .text	0000007c log2
4000e9e4 g     F .text	00000198 __mdiff
400034ec g     F .text	000000c0 _ZN10__cxxabiv111__terminateEPFvvE
40005140 g     F .text	0000005c .hidden __modsi3
40003974 g     F .text	00000010 _ZNSt9bad_allocD1Ev
80000000 g       *ABS*	00000000 __alt_data_end
00000020 g     F .exceptions	00000000 alt_exception
4000d04c g     F .text	00000004 __sfp_lock_release
40014d58  w    O .rodata	0000000c _ZTISt13bad_exception
40001d74 g     F .text	00000150 _ZN7NNLayer5printEv
40012400 g     F .text	00000034 _exit
40013bd8 g     F .text	00000140 alt_alarm_start
40001914 g     F .text	00000058 _Z13vector_weighti
40011660 g     F .text	00000060 .hidden __muldi3
40007b80 g     F .text	0000001c .hidden _Unwind_GetGR
40003214 g     F .text	0000000c __cxa_get_globals
4000db90 g     F .text	000001b8 __smakebuf_r
40016c28 g     O .rwdata	00000004 _ZN10__cxxabiv120__unexpected_handlerE
40001368 g     F .text	00000078 _ZN2NN5printEv
40008dec g     F .text	00000098 strlen
40008a48 g     F .text	00000068 _init_signal_r
40016c04  w    O .rwdata	00000008 _ZTISt9type_info
4001445c g     F .text	00000158 open
40006398 g     F .text	000000e0 .hidden __gedf2
40014d34  w    O .rodata	0000000d _ZTSSt9exception
40016c9c g     O .rwdata	00000004 __wctomb
40003fcc g     F .text	00000004 _ZNSt9exceptionD0Ev
40000d88 g     F .text	00000218 _ZN2NNC2Ei
4000f990 g     F .text	00000018 __sprint_r
40013f08 g     F .text	00000030 alt_icache_flush_all
40007c2c g     F .text	00000008 .hidden _Unwind_GetDataRelBase
40016cc4 g     O .rwdata	00000004 alt_priority_mask
40013f88 g     F .text	000000a0 alt_ic_irq_enable
4000ae80 g     F .text	00000024 __vfprintf_internal
40000220 g     F .text	00000048 _ZN5ImageC1Eii
40011604 g     F .text	0000005c _wctomb_r
400014f8 g     F .text	00000050 _ZN7NNLayerC2Eii
40006c7c g     F .text	000008d0 .hidden __subdf3
4000e414 g     F .text	000000b0 __lo0bits
40016cbc g     O .rwdata	00000008 alt_alarm_list
40013e50 g     F .text	0000005c _do_ctors
40008cd8 g     F .text	00000014 __sigtramp
400114fc g     F .text	000000d8 wcrtomb
40012304 g     F .text	000000d0 close
40014d64  w    O .rodata	00000020 _ZTSN10__cxxabiv115__forced_unwindE
4001282c g     F .text	00000080 alt_load
40003dac g     F .text	00000044 _ZNKSt9type_info10__do_catchEPKS_PPvj
40001100 g     F .text	00000138 _ZN2NN17getMaxOutputIndexEv
40001b84 g     F .text	0000003c _ZN7NNLayer3fctEs
400112a4 g     F .text	00000058 fputwc
40008c98 g     F .text	00000014 raise
40007f44 g     F .text	00000014 free
4000d050 g     F .text	00000004 __sinit_lock_acquire
4000e194 g     F .text	00000114 __multadd
400032c0 g     F .text	00000034 _ZN10__cxxabiv117__class_type_infoD0Ev
4000e16c g     F .text	00000028 _Bfree



Disassembly of section .entry:

00000000 <__reset>:
#if NIOS2_ICACHE_SIZE > 0 && defined(ALT_ALLOW_CODE_AT_RESET) && !defined(ALT_SIM_OPTIMIZE)
    /* Assume the instruction cache size is always a power of two. */
#if NIOS2_ICACHE_SIZE > 0x8000
    movhi r2, %hi(NIOS2_ICACHE_SIZE)
#else
    movui r2, NIOS2_ICACHE_SIZE
   0:	00840014 	movui	r2,4096
#endif

0:
    initi r2
   4:	1001483a 	initi	r2
    addi r2, r2, -NIOS2_ICACHE_LINE_SIZE
   8:	10bff804 	addi	r2,r2,-32
    bgt r2, zero, 0b
   c:	00bffd16 	blt	zero,r2,4 <__alt_data_end+0x80000004>
 * Jump to the _start entry point in the .text section if reset code
 * is allowed or if optimizing for RTL simulation.
 */
#if defined(ALT_ALLOW_CODE_AT_RESET) || defined(ALT_SIM_OPTIMIZE)
    /* Jump to the _start entry point in the .text section. */
    movhi r1, %hi(_start)
  10:	00500034 	movhi	at,16384
    ori r1, r1, %lo(_start)
  14:	08406714 	ori	at,at,412
    jmp r1
  18:	0800683a 	jmp	at
  1c:	00000000 	call	0 <__reset>

Disassembly of section .exceptions:

00000020 <alt_exception>:

#else /* ALT_EXCEPTION_STACK disabled */
        /* 
         * Reserve space on normal stack for registers about to be pushed.
         */
        addi  sp, sp, -76
  20:	deffed04 	addi	sp,sp,-76
         * documentation for details).
         *
         * Leave a gap in the stack frame at 4(sp) for the muldiv handler to
         * store zero into.
         */
        stw   ra,  0(sp)
  24:	dfc00015 	stw	ra,0(sp)
        stw   r1,   8(sp)
  28:	d8400215 	stw	at,8(sp)
        stw   r2,  12(sp)
  2c:	d8800315 	stw	r2,12(sp)
        stw   r3,  16(sp)
  30:	d8c00415 	stw	r3,16(sp)
        stw   r4,  20(sp)
  34:	d9000515 	stw	r4,20(sp)
        stw   r5,  24(sp)
  38:	d9400615 	stw	r5,24(sp)
        stw   r6,  28(sp)
  3c:	d9800715 	stw	r6,28(sp)
        stw   r7,  32(sp)
  40:	d9c00815 	stw	r7,32(sp)
        rdctl r5, estatus   /* Read early to avoid usage stall */
  44:	000b307a 	rdctl	r5,estatus
        stw   r8,  36(sp)
  48:	da000915 	stw	r8,36(sp)
        stw   r9,  40(sp)
  4c:	da400a15 	stw	r9,40(sp)
        stw   r10, 44(sp)
  50:	da800b15 	stw	r10,44(sp)
        stw   r11, 48(sp)
  54:	dac00c15 	stw	r11,48(sp)
        stw   r12, 52(sp)
  58:	db000d15 	stw	r12,52(sp)
        stw   r13, 56(sp)
  5c:	db400e15 	stw	r13,56(sp)
        stw   r14, 60(sp)
  60:	db800f15 	stw	r14,60(sp)
        stw   r15, 64(sp)
  64:	dbc01015 	stw	r15,64(sp)
        /*
         * ea-4 contains the address of the instruction being executed
         * when the exception occured. For interrupt exceptions, we will
         * will be re-issue the isntruction. Store it in 72(sp)
         */
        stw   r5,  68(sp)  /* estatus */
  68:	d9401115 	stw	r5,68(sp)
        addi  r15, ea, -4  /* instruction that caused exception */
  6c:	ebffff04 	addi	r15,ea,-4
        stw   r15,  72(sp)
  70:	dbc01215 	stw	r15,72(sp)
#else
        /*
         * Test to see if the exception was a software exception or caused 
         * by an external interrupt, and vector accordingly.
         */
        rdctl r4, ipending
  74:	0009313a 	rdctl	r4,ipending
        andi  r2, r5, 1
  78:	2880004c 	andi	r2,r5,1
        beq   r2, zero, .Lnot_irq
  7c:	10000326 	beq	r2,zero,8c <alt_exception+0x6c>
        beq   r4, zero, .Lnot_irq
  80:	20000226 	beq	r4,zero,8c <alt_exception+0x6c>
        /*
         * Now that all necessary registers have been preserved, call 
         * alt_irq_handler() to process the interrupts.
         */

        call alt_irq_handler
  84:	00000ec0 	call	ec <alt_irq_handler>

        .section .exceptions.irqreturn, "xa"

        br    .Lexception_exit
  88:	00000306 	br	98 <alt_exception_unknown+0x4>
         * upon completion, so we write ea (address of instruction *after*
         * the one where the exception occured) into 72(sp). The actual
         * instruction that caused the exception is written in r2, which these
         * handlers will utilize.
         */
        stw   ea,  72(sp)  /* Don't re-issue */
  8c:	df401215 	stw	ea,72(sp)
        ldw   r2, -4(ea)   /* Instruction that caused exception */
  90:	e8bfff17 	ldw	r2,-4(ea)

00000094 <alt_exception_unknown>:
#ifdef NIOS2_HAS_DEBUG_STUB
       /*
        *  Either tell the user now (if there is a debugger attached) or go into
        *  the debug monitor which will loop until a debugger is attached.
        */
        break
  94:	003da03a 	break	0
        /* 
         * Restore the saved registers, so that all general purpose registers 
         * have been restored to their state at the time the interrupt occured.
         */

        ldw   r5,  68(sp)
  98:	d9401117 	ldw	r5,68(sp)
        ldw   ea,  72(sp)  /* This becomes the PC once eret is executed */
  9c:	df401217 	ldw	ea,72(sp)
        ldw   ra,   0(sp)
  a0:	dfc00017 	ldw	ra,0(sp)

        wrctl estatus, r5
  a4:	2801707a 	wrctl	estatus,r5

        ldw   r1,   8(sp)
  a8:	d8400217 	ldw	at,8(sp)
        ldw   r2,  12(sp)
  ac:	d8800317 	ldw	r2,12(sp)
        ldw   r3,  16(sp)
  b0:	d8c00417 	ldw	r3,16(sp)
        ldw   r4,  20(sp)
  b4:	d9000517 	ldw	r4,20(sp)
        ldw   r5,  24(sp)
  b8:	d9400617 	ldw	r5,24(sp)
        ldw   r6,  28(sp)
  bc:	d9800717 	ldw	r6,28(sp)
        ldw   r7,  32(sp)
  c0:	d9c00817 	ldw	r7,32(sp)

#if defined(ALT_EXCEPTION_STACK) && defined(ALT_STACK_CHECK)
        ldw   et, %gprel(alt_exception_old_stack_limit)(gp)
#endif

        ldw   r8,  36(sp)
  c4:	da000917 	ldw	r8,36(sp)
        ldw   r9,  40(sp)
  c8:	da400a17 	ldw	r9,40(sp)
        ldw   r10, 44(sp)
  cc:	da800b17 	ldw	r10,44(sp)
        ldw   r11, 48(sp)
  d0:	dac00c17 	ldw	r11,48(sp)
        ldw   r12, 52(sp)
  d4:	db000d17 	ldw	r12,52(sp)
        ldw   r13, 56(sp)
  d8:	db400e17 	ldw	r13,56(sp)
        ldw   r14, 60(sp)
  dc:	db800f17 	ldw	r14,60(sp)
        ldw   r15, 64(sp)
  e0:	dbc01017 	ldw	r15,64(sp)
        stw   et, %gprel(alt_stack_limit_value)(gp)
        stw   zero, %gprel(alt_exception_old_stack_limit)(gp)
#endif /* ALT_STACK_CHECK */
        ldw   sp,  76(sp)
#else /* ALT_EXCEPTION_STACK disabled */
        addi  sp, sp, 76
  e4:	dec01304 	addi	sp,sp,76

        /*
         * Return to the interrupted instruction.
         */

        eret
  e8:	ef80083a 	eret

000000ec <alt_irq_handler>:
 * instruction is present if the macro ALT_CI_INTERRUPT_VECTOR defined.
 */

void alt_irq_handler (void) __attribute__ ((section (".exceptions")));
void alt_irq_handler (void)
{
  ec:	defff904 	addi	sp,sp,-28
  f0:	dfc00615 	stw	ra,24(sp)
  f4:	df000515 	stw	fp,20(sp)
  f8:	df000504 	addi	fp,sp,20
  
  /*
   * Notify the operating system that we are at interrupt level.
   */ 
  
  ALT_OS_INT_ENTER();
  fc:	0001883a 	nop
#ifndef NIOS2_EIC_PRESENT
static ALT_INLINE alt_u32 ALT_ALWAYS_INLINE alt_irq_pending (void)
{
  alt_u32 active;

  NIOS2_READ_IPENDING (active);
 100:	0005313a 	rdctl	r2,ipending
 104:	e0bffe15 	stw	r2,-8(fp)

  return active;
 108:	e0bffe17 	ldw	r2,-8(fp)
   * Consider the case where the high priority interupt is asserted during
   * the interrupt entry sequence for a lower priority interrupt to see why
   * this is the case.
   */

  active = alt_irq_pending ();
 10c:	e0bffb15 	stw	r2,-20(fp)

  do
  {
    i = 0;
 110:	e03ffd15 	stw	zero,-12(fp)
    mask = 1;
 114:	00800044 	movi	r2,1
 118:	e0bffc15 	stw	r2,-16(fp)
     * called to clear the interrupt condition.
     */

    do
    {
      if (active & mask)
 11c:	e0fffb17 	ldw	r3,-20(fp)
 120:	e0bffc17 	ldw	r2,-16(fp)
 124:	1884703a 	and	r2,r3,r2
 128:	10001426 	beq	r2,zero,17c <alt_irq_handler+0x90>
      { 
#ifdef ALT_ENHANCED_INTERRUPT_API_PRESENT
        alt_irq[i].handler(alt_irq[i].context); 
 12c:	009001b4 	movhi	r2,16390
 130:	10907304 	addi	r2,r2,16844
 134:	e0fffd17 	ldw	r3,-12(fp)
 138:	180690fa 	slli	r3,r3,3
 13c:	10c5883a 	add	r2,r2,r3
 140:	10c00017 	ldw	r3,0(r2)
 144:	009001b4 	movhi	r2,16390
 148:	10907304 	addi	r2,r2,16844
 14c:	e13ffd17 	ldw	r4,-12(fp)
 150:	200890fa 	slli	r4,r4,3
 154:	1105883a 	add	r2,r2,r4
 158:	10800104 	addi	r2,r2,4
 15c:	10800017 	ldw	r2,0(r2)
 160:	1009883a 	mov	r4,r2
 164:	183ee83a 	callr	r3
#else
        alt_irq[i].handler(alt_irq[i].context, i); 
#endif
        break;
 168:	0001883a 	nop
#ifndef NIOS2_EIC_PRESENT
static ALT_INLINE alt_u32 ALT_ALWAYS_INLINE alt_irq_pending (void)
{
  alt_u32 active;

  NIOS2_READ_IPENDING (active);
 16c:	0005313a 	rdctl	r2,ipending
 170:	e0bfff15 	stw	r2,-4(fp)

  return active;
 174:	e0bfff17 	ldw	r2,-4(fp)
 178:	00000706 	br	198 <alt_irq_handler+0xac>
      }
      mask <<= 1;
 17c:	e0bffc17 	ldw	r2,-16(fp)
 180:	1085883a 	add	r2,r2,r2
 184:	e0bffc15 	stw	r2,-16(fp)
      i++;
 188:	e0bffd17 	ldw	r2,-12(fp)
 18c:	10800044 	addi	r2,r2,1
 190:	e0bffd15 	stw	r2,-12(fp)

    } while (1);
 194:	003fe106 	br	11c <__alt_data_end+0x8000011c>

    active = alt_irq_pending ();
 198:	e0bffb15 	stw	r2,-20(fp)
    
  } while (active);
 19c:	e0bffb17 	ldw	r2,-20(fp)
 1a0:	103fdb1e 	bne	r2,zero,110 <__alt_data_end+0x80000110>

  /*
   * Notify the operating system that interrupt processing is complete.
   */ 

  ALT_OS_INT_EXIT();
 1a4:	0001883a 	nop
}
 1a8:	e037883a 	mov	sp,fp
 1ac:	dfc00117 	ldw	ra,4(sp)
 1b0:	df000017 	ldw	fp,0(sp)
 1b4:	dec00204 	addi	sp,sp,8
 1b8:	f800283a 	ret

Disassembly of section .text:

4000019c <_start>:

    /* Assume the data cache size is always a power of two. */
#if NIOS2_DCACHE_SIZE > 0x8000
    movhi r2, %hi(NIOS2_DCACHE_SIZE)
#else
    movui r2, NIOS2_DCACHE_SIZE
4000019c:	00820014 	movui	r2,2048
#endif

0:
    initd 0(r2)
400001a0:	10000033 	initd	0(r2)
#ifdef NIOS2_ECC_PRESENT
    addi r2, r2, -4
#else
    addi r2, r2, -NIOS2_DCACHE_LINE_SIZE
400001a4:	10bff804 	addi	r2,r2,-32
#endif
    bgt r2, zero, 0b
400001a8:	00bffd16 	blt	zero,r2,400001a0 <__alt_data_end+0xc00001a0>

    /*
     * Now that the caches are initialized, set up the stack pointer and global pointer.
     * The values provided by the linker are assumed to be correctly aligned.
     */
    movhi sp, %hi(__alt_stack_pointer)
400001ac:	06e00034 	movhi	sp,32768
    ori sp, sp, %lo(__alt_stack_pointer)
400001b0:	dec00014 	ori	sp,sp,0
    movhi gp, %hi(_gp)
400001b4:	06900074 	movhi	gp,16385
    ori gp, gp, %lo(_gp)
400001b8:	d6bafa14 	ori	gp,gp,60392
 */
#ifndef ALT_SIM_OPTIMIZE
    /* Log that the BSS is about to be cleared. */
    ALT_LOG_PUTS(alt_log_msg_bss)

    movhi r2, %hi(__bss_start)
400001bc:	00900074 	movhi	r2,16385
    ori r2, r2, %lo(__bss_start)
400001c0:	10a21514 	ori	r2,r2,34900

    movhi r3, %hi(__bss_end)
400001c4:	00d001b4 	movhi	r3,16390
    ori r3, r3, %lo(__bss_end)
400001c8:	18d0b314 	ori	r3,r3,17100

    beq r2, r3, 1f
400001cc:	10c00326 	beq	r2,r3,400001dc <_start+0x40>

0:
    stw zero, (r2)
400001d0:	10000015 	stw	zero,0(r2)
    addi r2, r2, 4
400001d4:	10800104 	addi	r2,r2,4
    bltu r2, r3, 0b
400001d8:	10fffd36 	bltu	r2,r3,400001d0 <__alt_data_end+0xc00001d0>
     * section aren't defined until alt_load() has been called).
     */
    mov   et, zero
#endif

    call alt_load
400001dc:	001282c0 	call	4001282c <alt_load>

    /* Log that alt_main is about to be called. */
    ALT_LOG_PUTS(alt_log_msg_alt_main)

    /* Call the C entry point. It should never return. */
    call alt_main
400001e0:	00129d00 	call	400129d0 <alt_main>

400001e4 <alt_after_alt_main>:

    /* Wait in infinite loop in case alt_main does return. */
alt_after_alt_main:
    br alt_after_alt_main
400001e4:	003fff06 	br	400001e4 <__alt_data_end+0xc00001e4>

400001e8 <_ZN5ImageC1Ev>:
#include "stdio.h"
#include "io.h"
#include "system.h"


Image::Image() {
400001e8:	defffe04 	addi	sp,sp,-8
400001ec:	df000115 	stw	fp,4(sp)
400001f0:	df000104 	addi	fp,sp,4
400001f4:	e13fff15 	stw	r4,-4(fp)
	// TODO Auto-generated constructor stub
	source_array = 0;
400001f8:	e0bfff17 	ldw	r2,-4(fp)
400001fc:	10000215 	stw	zero,8(r2)
	length = 0;
40000200:	e0bfff17 	ldw	r2,-4(fp)
40000204:	10000115 	stw	zero,4(r2)
	height = 0;
40000208:	e0bfff17 	ldw	r2,-4(fp)
4000020c:	10000015 	stw	zero,0(r2)
}
40000210:	e037883a 	mov	sp,fp
40000214:	df000017 	ldw	fp,0(sp)
40000218:	dec00104 	addi	sp,sp,4
4000021c:	f800283a 	ret

40000220 <_ZN5ImageC1Eii>:

Image::Image(int new_length, int new_height) {
40000220:	defffb04 	addi	sp,sp,-20
40000224:	dfc00415 	stw	ra,16(sp)
40000228:	df000315 	stw	fp,12(sp)
4000022c:	df000304 	addi	fp,sp,12
40000230:	e13ffd15 	stw	r4,-12(fp)
40000234:	e17ffe15 	stw	r5,-8(fp)
40000238:	e1bfff15 	stw	r6,-4(fp)
	// TODO Auto-generated constructor stub
	source_array = 0;
4000023c:	e0bffd17 	ldw	r2,-12(fp)
40000240:	10000215 	stw	zero,8(r2)
	init(new_length, new_height);
40000244:	e13ffd17 	ldw	r4,-12(fp)
40000248:	e17ffe17 	ldw	r5,-8(fp)
4000024c:	e1bfff17 	ldw	r6,-4(fp)
40000250:	00002680 	call	40000268 <_ZN5Image4initEii>
}
40000254:	e037883a 	mov	sp,fp
40000258:	dfc00117 	ldw	ra,4(sp)
4000025c:	df000017 	ldw	fp,0(sp)
40000260:	dec00204 	addi	sp,sp,8
40000264:	f800283a 	ret

40000268 <_ZN5Image4initEii>:

void Image::init(int new_length, int new_height) {
40000268:	defffb04 	addi	sp,sp,-20
4000026c:	dfc00415 	stw	ra,16(sp)
40000270:	df000315 	stw	fp,12(sp)
40000274:	df000304 	addi	fp,sp,12
40000278:	e13ffd15 	stw	r4,-12(fp)
4000027c:	e17ffe15 	stw	r5,-8(fp)
40000280:	e1bfff15 	stw	r6,-4(fp)
	// TODO Auto-generated constructor stub
	length = new_length;
40000284:	e0bffd17 	ldw	r2,-12(fp)
40000288:	e0fffe17 	ldw	r3,-8(fp)
4000028c:	10c00115 	stw	r3,4(r2)
	height = new_height;
40000290:	e0bffd17 	ldw	r2,-12(fp)
40000294:	e0ffff17 	ldw	r3,-4(fp)
40000298:	10c00015 	stw	r3,0(r2)
	if (source_array != 0) delete[] source_array;
4000029c:	e0bffd17 	ldw	r2,-12(fp)
400002a0:	10800217 	ldw	r2,8(r2)
400002a4:	10000726 	beq	r2,zero,400002c4 <_ZN5Image4initEii+0x5c>
400002a8:	e0bffd17 	ldw	r2,-12(fp)
400002ac:	10800217 	ldw	r2,8(r2)
400002b0:	10000426 	beq	r2,zero,400002c4 <_ZN5Image4initEii+0x5c>
400002b4:	e0bffd17 	ldw	r2,-12(fp)
400002b8:	10800217 	ldw	r2,8(r2)
400002bc:	1009883a 	mov	r4,r2
400002c0:	0003c300 	call	40003c30 <_ZdaPv>
	source_array = new unsigned char [height*length];
400002c4:	e0bffd17 	ldw	r2,-12(fp)
400002c8:	10c00017 	ldw	r3,0(r2)
400002cc:	e0bffd17 	ldw	r2,-12(fp)
400002d0:	10800117 	ldw	r2,4(r2)
400002d4:	1885383a 	mul	r2,r3,r2
400002d8:	1009883a 	mov	r4,r2
400002dc:	0003b440 	call	40003b44 <_Znaj>
400002e0:	1007883a 	mov	r3,r2
400002e4:	e0bffd17 	ldw	r2,-12(fp)
400002e8:	10c00215 	stw	r3,8(r2)
	randomize();
400002ec:	e13ffd17 	ldw	r4,-12(fp)
400002f0:	00003080 	call	40000308 <_ZN5Image9randomizeEv>
}
400002f4:	e037883a 	mov	sp,fp
400002f8:	dfc00117 	ldw	ra,4(sp)
400002fc:	df000017 	ldw	fp,0(sp)
40000300:	dec00204 	addi	sp,sp,8
40000304:	f800283a 	ret

40000308 <_ZN5Image9randomizeEv>:

void Image::randomize() {
40000308:	defffa04 	addi	sp,sp,-24
4000030c:	dfc00515 	stw	ra,20(sp)
40000310:	df000415 	stw	fp,16(sp)
40000314:	dc000315 	stw	r16,12(sp)
40000318:	df000404 	addi	fp,sp,16
4000031c:	e13ffe15 	stw	r4,-8(fp)
	for (int y=0; y<height; y++) {
40000320:	e03ffc15 	stw	zero,-16(fp)
40000324:	00001306 	br	40000374 <_ZN5Image9randomizeEv+0x6c>
		for (int x=0; x<length; x++) {
40000328:	e03ffd15 	stw	zero,-12(fp)
4000032c:	00000a06 	br	40000358 <_ZN5Image9randomizeEv+0x50>
			*source_pixel(x,y) = rand() &0xFF;
40000330:	e13ffe17 	ldw	r4,-8(fp)
40000334:	e17ffd17 	ldw	r5,-12(fp)
40000338:	e1bffc17 	ldw	r6,-16(fp)
4000033c:	00007200 	call	40000720 <_ZN5Image12source_pixelEii>
40000340:	1021883a 	mov	r16,r2
40000344:	00089900 	call	40008990 <rand>
40000348:	80800005 	stb	r2,0(r16)
	randomize();
}

void Image::randomize() {
	for (int y=0; y<height; y++) {
		for (int x=0; x<length; x++) {
4000034c:	e0bffd17 	ldw	r2,-12(fp)
40000350:	10800044 	addi	r2,r2,1
40000354:	e0bffd15 	stw	r2,-12(fp)
40000358:	e0bffe17 	ldw	r2,-8(fp)
4000035c:	10800117 	ldw	r2,4(r2)
40000360:	e0fffd17 	ldw	r3,-12(fp)
40000364:	18bff216 	blt	r3,r2,40000330 <__alt_data_end+0xc0000330>
	source_array = new unsigned char [height*length];
	randomize();
}

void Image::randomize() {
	for (int y=0; y<height; y++) {
40000368:	e0bffc17 	ldw	r2,-16(fp)
4000036c:	10800044 	addi	r2,r2,1
40000370:	e0bffc15 	stw	r2,-16(fp)
40000374:	e0bffe17 	ldw	r2,-8(fp)
40000378:	10800017 	ldw	r2,0(r2)
4000037c:	e0fffc17 	ldw	r3,-16(fp)
40000380:	18bfe916 	blt	r3,r2,40000328 <__alt_data_end+0xc0000328>
		for (int x=0; x<length; x++) {
			*source_pixel(x,y) = rand() &0xFF;
		}
	}
}
40000384:	e6ffff04 	addi	sp,fp,-4
40000388:	dfc00217 	ldw	ra,8(sp)
4000038c:	df000117 	ldw	fp,4(sp)
40000390:	dc000017 	ldw	r16,0(sp)
40000394:	dec00304 	addi	sp,sp,12
40000398:	f800283a 	ret

4000039c <_ZN5Image17Get_Fractal_LevelEff>:

int Image::Get_Fractal_Level(float newRe, float newIm) {
4000039c:	defff504 	addi	sp,sp,-44
400003a0:	df000a15 	stw	fp,40(sp)
400003a4:	df000a04 	addi	fp,sp,40
400003a8:	e13ffd15 	stw	r4,-12(fp)
400003ac:	e17ffe15 	stw	r5,-8(fp)
400003b0:	e1bfff15 	stw	r6,-4(fp)
	float cRe = -0.78;
400003b4:	00afd234 	movhi	r2,48968
400003b8:	10ab8504 	addi	r2,r2,-20972
400003bc:	e0bff715 	stw	r2,-36(fp)
	float cIm = 0.158;
400003c0:	008f88b4 	movhi	r2,15906
400003c4:	10b2b044 	addi	r2,r2,-13631
400003c8:	e0bff815 	stw	r2,-32(fp)
    int i;

    for(i = 0; i < 63; i++) {
400003cc:	e03ff615 	stw	zero,-40(fp)
400003d0:	00002306 	br	40000460 <_ZN5Image17Get_Fractal_LevelEff+0xc4>
        float oldRe = newRe;
400003d4:	e0bffe17 	ldw	r2,-8(fp)
400003d8:	e0bff915 	stw	r2,-28(fp)
        float oldIm = newIm;
400003dc:	e0bfff17 	ldw	r2,-4(fp)
400003e0:	e0bffa15 	stw	r2,-24(fp)
        float sqRe = newRe*newRe;
400003e4:	e0fffe17 	ldw	r3,-8(fp)
400003e8:	e0bffe17 	ldw	r2,-8(fp)
400003ec:	1885ff32 	custom	252,r2,r3,r2
400003f0:	e0bffb15 	stw	r2,-20(fp)
        float sqIm = newIm*newIm;
400003f4:	e0ffff17 	ldw	r3,-4(fp)
400003f8:	e0bfff17 	ldw	r2,-4(fp)
400003fc:	1885ff32 	custom	252,r2,r3,r2
40000400:	e0bffc15 	stw	r2,-16(fp)
        if((sqRe + sqIm) > 4) break;
40000404:	e0fffb17 	ldw	r3,-20(fp)
40000408:	e0bffc17 	ldw	r2,-16(fp)
4000040c:	1887ff72 	custom	253,r3,r3,r2
40000410:	00902034 	movhi	r2,16512
40000414:	1885f972 	custom	229,r2,r3,r2
40000418:	10000126 	beq	r2,zero,40000420 <_ZN5Image17Get_Fractal_LevelEff+0x84>
4000041c:	00001306 	br	4000046c <_ZN5Image17Get_Fractal_LevelEff+0xd0>
        newRe = sqRe - sqIm + cRe;
40000420:	e0fffb17 	ldw	r3,-20(fp)
40000424:	e0bffc17 	ldw	r2,-16(fp)
40000428:	1887ffb2 	custom	254,r3,r3,r2
4000042c:	e0bff717 	ldw	r2,-36(fp)
40000430:	1885ff72 	custom	253,r2,r3,r2
40000434:	e0bffe15 	stw	r2,-8(fp)
        newIm = 2 * oldRe * oldIm + cIm;
40000438:	e0bff917 	ldw	r2,-28(fp)
4000043c:	1087ff72 	custom	253,r3,r2,r2
40000440:	e0bffa17 	ldw	r2,-24(fp)
40000444:	1887ff32 	custom	252,r3,r3,r2
40000448:	e0bff817 	ldw	r2,-32(fp)
4000044c:	1885ff72 	custom	253,r2,r3,r2
40000450:	e0bfff15 	stw	r2,-4(fp)
int Image::Get_Fractal_Level(float newRe, float newIm) {
	float cRe = -0.78;
	float cIm = 0.158;
    int i;

    for(i = 0; i < 63; i++) {
40000454:	e0bff617 	ldw	r2,-40(fp)
40000458:	10800044 	addi	r2,r2,1
4000045c:	e0bff615 	stw	r2,-40(fp)
40000460:	e0bff617 	ldw	r2,-40(fp)
40000464:	10800fd0 	cmplti	r2,r2,63
40000468:	103fda1e 	bne	r2,zero,400003d4 <__alt_data_end+0xc00003d4>
        newIm = 2 * oldRe * oldIm + cIm;

        //DEBUG
        //printf("(%f,%f)",newRe,newIm);
    }
    return i;
4000046c:	e0bff617 	ldw	r2,-40(fp)
}
40000470:	e037883a 	mov	sp,fp
40000474:	df000017 	ldw	fp,0(sp)
40000478:	dec00104 	addi	sp,sp,4
4000047c:	f800283a 	ret

40000480 <_ZN5Image17Get_Fractal_ColorEi>:

int Image::Get_Fractal_Color(int level) {
40000480:	defffd04 	addi	sp,sp,-12
40000484:	df000215 	stw	fp,8(sp)
40000488:	df000204 	addi	fp,sp,8
4000048c:	e13ffe15 	stw	r4,-8(fp)
40000490:	e17fff15 	stw	r5,-4(fp)
    if (level>63) level = 63;
40000494:	e0bfff17 	ldw	r2,-4(fp)
40000498:	10801010 	cmplti	r2,r2,64
4000049c:	1000021e 	bne	r2,zero,400004a8 <_ZN5Image17Get_Fractal_ColorEi+0x28>
400004a0:	00800fc4 	movi	r2,63
400004a4:	e0bfff15 	stw	r2,-4(fp)
    return ((level<<3) & 0xE0)+level;
400004a8:	e0bfff17 	ldw	r2,-4(fp)
400004ac:	100490fa 	slli	r2,r2,3
400004b0:	10c0380c 	andi	r3,r2,224
400004b4:	e0bfff17 	ldw	r2,-4(fp)
400004b8:	1885883a 	add	r2,r3,r2
}
400004bc:	e037883a 	mov	sp,fp
400004c0:	df000017 	ldw	fp,0(sp)
400004c4:	dec00104 	addi	sp,sp,4
400004c8:	f800283a 	ret

400004cc <_ZN5Image12make_fractalEv>:

void Image::make_fractal() {
400004cc:	defff004 	addi	sp,sp,-64
400004d0:	dfc00f15 	stw	ra,60(sp)
400004d4:	df000e15 	stw	fp,56(sp)
400004d8:	dc000d15 	stw	r16,52(sp)
400004dc:	df000e04 	addi	fp,sp,56
400004e0:	e13ffe15 	stw	r4,-8(fp)
	float sinAngle = 0;
400004e4:	e03ff415 	stw	zero,-48(fp)
	float cosAngle = 1;
400004e8:	008fe034 	movhi	r2,16256
400004ec:	e0bff515 	stw	r2,-44(fp)
	float Scale = 1;
400004f0:	008fe034 	movhi	r2,16256
400004f4:	e0bff615 	stw	r2,-40(fp)
	float X_position = 0;
400004f8:	e03ff715 	stw	zero,-36(fp)
	float Y_position = 0;
400004fc:	e03ff815 	stw	zero,-32(fp)

    float x,y;

    for (y=0; y<height; y++) {
40000500:	e03ff315 	stw	zero,-52(fp)
40000504:	00007a06 	br	400006f0 <_ZN5Image12make_fractalEv+0x224>
        for (x=0; x<length; x++) {
40000508:	e03ff215 	stw	zero,-56(fp)
4000050c:	00006e06 	br	400006c8 <_ZN5Image12make_fractalEv+0x1fc>
            if ( (x==length/2) || (y==height/2) ) *source_pixel(x,y) = 0;
40000510:	e0bffe17 	ldw	r2,-8(fp)
40000514:	10800117 	ldw	r2,4(r2)
40000518:	1006d7fa 	srli	r3,r2,31
4000051c:	1885883a 	add	r2,r3,r2
40000520:	1005d07a 	srai	r2,r2,1
40000524:	1007feb2 	custom	250,r3,r2,zero
40000528:	e0bff217 	ldw	r2,-56(fp)
4000052c:	1885f8f2 	custom	227,r2,r3,r2
40000530:	1000091e 	bne	r2,zero,40000558 <_ZN5Image12make_fractalEv+0x8c>
40000534:	e0bffe17 	ldw	r2,-8(fp)
40000538:	10800017 	ldw	r2,0(r2)
4000053c:	1006d7fa 	srli	r3,r2,31
40000540:	1885883a 	add	r2,r3,r2
40000544:	1005d07a 	srai	r2,r2,1
40000548:	1007feb2 	custom	250,r3,r2,zero
4000054c:	e0bff317 	ldw	r2,-52(fp)
40000550:	1885f8b2 	custom	226,r2,r3,r2
40000554:	10000a1e 	bne	r2,zero,40000580 <_ZN5Image12make_fractalEv+0xb4>
40000558:	e0bff217 	ldw	r2,-56(fp)
4000055c:	1007fe72 	custom	249,r3,r2,zero
40000560:	e13ff317 	ldw	r4,-52(fp)
40000564:	2005fe72 	custom	249,r2,r4,zero
40000568:	e13ffe17 	ldw	r4,-8(fp)
4000056c:	180b883a 	mov	r5,r3
40000570:	100d883a 	mov	r6,r2
40000574:	00007200 	call	40000720 <_ZN5Image12source_pixelEii>
40000578:	10000005 	stb	zero,0(r2)
4000057c:	00004e06 	br	400006b8 <_ZN5Image12make_fractalEv+0x1ec>
            else {
                float fx = (x-length/2)/(length/2);
40000580:	e0bffe17 	ldw	r2,-8(fp)
40000584:	10800117 	ldw	r2,4(r2)
40000588:	1006d7fa 	srli	r3,r2,31
4000058c:	1885883a 	add	r2,r3,r2
40000590:	1005d07a 	srai	r2,r2,1
40000594:	1005feb2 	custom	250,r2,r2,zero
40000598:	e0fff217 	ldw	r3,-56(fp)
4000059c:	1887ffb2 	custom	254,r3,r3,r2
400005a0:	e0bffe17 	ldw	r2,-8(fp)
400005a4:	10800117 	ldw	r2,4(r2)
400005a8:	1008d7fa 	srli	r4,r2,31
400005ac:	2085883a 	add	r2,r4,r2
400005b0:	1005d07a 	srai	r2,r2,1
400005b4:	1005feb2 	custom	250,r2,r2,zero
400005b8:	1885fff2 	custom	255,r2,r3,r2
400005bc:	e0bff915 	stw	r2,-28(fp)
                float fy = (y-height/2)/(height/2);
400005c0:	e0bffe17 	ldw	r2,-8(fp)
400005c4:	10800017 	ldw	r2,0(r2)
400005c8:	1006d7fa 	srli	r3,r2,31
400005cc:	1885883a 	add	r2,r3,r2
400005d0:	1005d07a 	srai	r2,r2,1
400005d4:	1005feb2 	custom	250,r2,r2,zero
400005d8:	e0fff317 	ldw	r3,-52(fp)
400005dc:	1887ffb2 	custom	254,r3,r3,r2
400005e0:	e0bffe17 	ldw	r2,-8(fp)
400005e4:	10800017 	ldw	r2,0(r2)
400005e8:	1008d7fa 	srli	r4,r2,31
400005ec:	2085883a 	add	r2,r4,r2
400005f0:	1005d07a 	srai	r2,r2,1
400005f4:	1005feb2 	custom	250,r2,r2,zero
400005f8:	1885fff2 	custom	255,r2,r3,r2
400005fc:	e0bffa15 	stw	r2,-24(fp)
                float rotated_fx = (fx*cosAngle + fy*sinAngle)/Scale;
40000600:	e0fff917 	ldw	r3,-28(fp)
40000604:	e0bff517 	ldw	r2,-44(fp)
40000608:	1887ff32 	custom	252,r3,r3,r2
4000060c:	e13ffa17 	ldw	r4,-24(fp)
40000610:	e0bff417 	ldw	r2,-48(fp)
40000614:	2085ff32 	custom	252,r2,r4,r2
40000618:	1887ff72 	custom	253,r3,r3,r2
4000061c:	e0bff617 	ldw	r2,-40(fp)
40000620:	1885fff2 	custom	255,r2,r3,r2
40000624:	e0bffb15 	stw	r2,-20(fp)
                float rotated_fy = (-fx*sinAngle + fy*cosAngle)/Scale;
40000628:	e0bff917 	ldw	r2,-28(fp)
4000062c:	1007f872 	custom	225,r3,r2,zero
40000630:	e0bff417 	ldw	r2,-48(fp)
40000634:	1887ff32 	custom	252,r3,r3,r2
40000638:	e13ffa17 	ldw	r4,-24(fp)
4000063c:	e0bff517 	ldw	r2,-44(fp)
40000640:	2085ff32 	custom	252,r2,r4,r2
40000644:	1887ff72 	custom	253,r3,r3,r2
40000648:	e0bff617 	ldw	r2,-40(fp)
4000064c:	1885fff2 	custom	255,r2,r3,r2
40000650:	e0bffc15 	stw	r2,-16(fp)

                int level = Get_Fractal_Level(X_position+rotated_fx, Y_position+rotated_fy);
40000654:	e0fff717 	ldw	r3,-36(fp)
40000658:	e0bffb17 	ldw	r2,-20(fp)
4000065c:	188bff72 	custom	253,r5,r3,r2
40000660:	e0fff817 	ldw	r3,-32(fp)
40000664:	e0bffc17 	ldw	r2,-16(fp)
40000668:	1885ff72 	custom	253,r2,r3,r2
4000066c:	e13ffe17 	ldw	r4,-8(fp)
40000670:	100d883a 	mov	r6,r2
40000674:	000039c0 	call	4000039c <_ZN5Image17Get_Fractal_LevelEff>
40000678:	e0bffd15 	stw	r2,-12(fp)
                *source_pixel(x,y) = 4*Get_Fractal_Color(level);
4000067c:	e0bff217 	ldw	r2,-56(fp)
40000680:	1007fe72 	custom	249,r3,r2,zero
40000684:	e13ff317 	ldw	r4,-52(fp)
40000688:	2005fe72 	custom	249,r2,r4,zero
4000068c:	e13ffe17 	ldw	r4,-8(fp)
40000690:	180b883a 	mov	r5,r3
40000694:	100d883a 	mov	r6,r2
40000698:	00007200 	call	40000720 <_ZN5Image12source_pixelEii>
4000069c:	1021883a 	mov	r16,r2
400006a0:	e13ffe17 	ldw	r4,-8(fp)
400006a4:	e17ffd17 	ldw	r5,-12(fp)
400006a8:	00004800 	call	40000480 <_ZN5Image17Get_Fractal_ColorEi>
400006ac:	1085883a 	add	r2,r2,r2
400006b0:	1085883a 	add	r2,r2,r2
400006b4:	80800005 	stb	r2,0(r16)
	float Y_position = 0;

    float x,y;

    for (y=0; y<height; y++) {
        for (x=0; x<length; x++) {
400006b8:	e0fff217 	ldw	r3,-56(fp)
400006bc:	008fe034 	movhi	r2,16256
400006c0:	1885ff72 	custom	253,r2,r3,r2
400006c4:	e0bff215 	stw	r2,-56(fp)
400006c8:	e0bffe17 	ldw	r2,-8(fp)
400006cc:	10800117 	ldw	r2,4(r2)
400006d0:	1007feb2 	custom	250,r3,r2,zero
400006d4:	e0bff217 	ldw	r2,-56(fp)
400006d8:	1885f972 	custom	229,r2,r3,r2
400006dc:	103f8c1e 	bne	r2,zero,40000510 <__alt_data_end+0xc0000510>
	float X_position = 0;
	float Y_position = 0;

    float x,y;

    for (y=0; y<height; y++) {
400006e0:	e0fff317 	ldw	r3,-52(fp)
400006e4:	008fe034 	movhi	r2,16256
400006e8:	1885ff72 	custom	253,r2,r3,r2
400006ec:	e0bff315 	stw	r2,-52(fp)
400006f0:	e0bffe17 	ldw	r2,-8(fp)
400006f4:	10800017 	ldw	r2,0(r2)
400006f8:	1007feb2 	custom	250,r3,r2,zero
400006fc:	e0bff317 	ldw	r2,-52(fp)
40000700:	1885f972 	custom	229,r2,r3,r2
40000704:	103f801e 	bne	r2,zero,40000508 <__alt_data_end+0xc0000508>
                int level = Get_Fractal_Level(X_position+rotated_fx, Y_position+rotated_fy);
                *source_pixel(x,y) = 4*Get_Fractal_Color(level);
            }
        }
    }
}
40000708:	e6ffff04 	addi	sp,fp,-4
4000070c:	dfc00217 	ldw	ra,8(sp)
40000710:	df000117 	ldw	fp,4(sp)
40000714:	dc000017 	ldw	r16,0(sp)
40000718:	dec00304 	addi	sp,sp,12
4000071c:	f800283a 	ret

40000720 <_ZN5Image12source_pixelEii>:

unsigned char * Image::source_pixel(int x, int y) {
40000720:	defffc04 	addi	sp,sp,-16
40000724:	df000315 	stw	fp,12(sp)
40000728:	df000304 	addi	fp,sp,12
4000072c:	e13ffd15 	stw	r4,-12(fp)
40000730:	e17ffe15 	stw	r5,-8(fp)
40000734:	e1bfff15 	stw	r6,-4(fp)
	// TODO Auto-generated constructor stub
	return source_array + (y*length+x);
40000738:	e0bffd17 	ldw	r2,-12(fp)
4000073c:	10800217 	ldw	r2,8(r2)
40000740:	e0fffd17 	ldw	r3,-12(fp)
40000744:	19000117 	ldw	r4,4(r3)
40000748:	e0ffff17 	ldw	r3,-4(fp)
4000074c:	20c9383a 	mul	r4,r4,r3
40000750:	e0fffe17 	ldw	r3,-8(fp)
40000754:	20c7883a 	add	r3,r4,r3
40000758:	10c5883a 	add	r2,r2,r3
}
4000075c:	e037883a 	mov	sp,fp
40000760:	df000017 	ldw	fp,0(sp)
40000764:	dec00104 	addi	sp,sp,4
40000768:	f800283a 	ret

4000076c <_ZN5Image7make_bwEv>:

void Image::make_bw() {
4000076c:	defffb04 	addi	sp,sp,-20
40000770:	dfc00415 	stw	ra,16(sp)
40000774:	df000315 	stw	fp,12(sp)
40000778:	df000304 	addi	fp,sp,12
4000077c:	e13fff15 	stw	r4,-4(fp)
	// TODO Auto-generated constructor stub
	for (int y=0; y<height; y++) {
40000780:	e03ffd15 	stw	zero,-12(fp)
40000784:	00002206 	br	40000810 <_ZN5Image7make_bwEv+0xa4>
		for (int x=0; x<length; x++) {
40000788:	e03ffe15 	stw	zero,-8(fp)
4000078c:	00001906 	br	400007f4 <_ZN5Image7make_bwEv+0x88>
			if (*source_pixel(x,y)>127) *source_pixel(x,y)=255;
40000790:	e13fff17 	ldw	r4,-4(fp)
40000794:	e17ffe17 	ldw	r5,-8(fp)
40000798:	e1bffd17 	ldw	r6,-12(fp)
4000079c:	00007200 	call	40000720 <_ZN5Image12source_pixelEii>
400007a0:	10800003 	ldbu	r2,0(r2)
400007a4:	10803fcc 	andi	r2,r2,255
400007a8:	1004d1fa 	srli	r2,r2,7
400007ac:	10803fcc 	andi	r2,r2,255
400007b0:	10000826 	beq	r2,zero,400007d4 <_ZN5Image7make_bwEv+0x68>
400007b4:	e13fff17 	ldw	r4,-4(fp)
400007b8:	e17ffe17 	ldw	r5,-8(fp)
400007bc:	e1bffd17 	ldw	r6,-12(fp)
400007c0:	00007200 	call	40000720 <_ZN5Image12source_pixelEii>
400007c4:	1007883a 	mov	r3,r2
400007c8:	00bfffc4 	movi	r2,-1
400007cc:	18800005 	stb	r2,0(r3)
400007d0:	00000506 	br	400007e8 <_ZN5Image7make_bwEv+0x7c>
			else *source_pixel(x,y)=0;
400007d4:	e13fff17 	ldw	r4,-4(fp)
400007d8:	e17ffe17 	ldw	r5,-8(fp)
400007dc:	e1bffd17 	ldw	r6,-12(fp)
400007e0:	00007200 	call	40000720 <_ZN5Image12source_pixelEii>
400007e4:	10000005 	stb	zero,0(r2)
}

void Image::make_bw() {
	// TODO Auto-generated constructor stub
	for (int y=0; y<height; y++) {
		for (int x=0; x<length; x++) {
400007e8:	e0bffe17 	ldw	r2,-8(fp)
400007ec:	10800044 	addi	r2,r2,1
400007f0:	e0bffe15 	stw	r2,-8(fp)
400007f4:	e0bfff17 	ldw	r2,-4(fp)
400007f8:	10800117 	ldw	r2,4(r2)
400007fc:	e0fffe17 	ldw	r3,-8(fp)
40000800:	18bfe316 	blt	r3,r2,40000790 <__alt_data_end+0xc0000790>
	return source_array + (y*length+x);
}

void Image::make_bw() {
	// TODO Auto-generated constructor stub
	for (int y=0; y<height; y++) {
40000804:	e0bffd17 	ldw	r2,-12(fp)
40000808:	10800044 	addi	r2,r2,1
4000080c:	e0bffd15 	stw	r2,-12(fp)
40000810:	e0bfff17 	ldw	r2,-4(fp)
40000814:	10800017 	ldw	r2,0(r2)
40000818:	e0fffd17 	ldw	r3,-12(fp)
4000081c:	18bfda16 	blt	r3,r2,40000788 <__alt_data_end+0xc0000788>
		for (int x=0; x<length; x++) {
			if (*source_pixel(x,y)>127) *source_pixel(x,y)=255;
			else *source_pixel(x,y)=0;
		}
	}
}
40000820:	e037883a 	mov	sp,fp
40000824:	dfc00117 	ldw	ra,4(sp)
40000828:	df000017 	ldw	fp,0(sp)
4000082c:	dec00204 	addi	sp,sp,8
40000830:	f800283a 	ret

40000834 <_ZN5Image8apply_NNEP2NNii>:
 *
 * Applique toutes les sous-images size x size de cette
 * image a l'entree de ce reseau de neuronnes.
 *
 *******************************************************/
Image * Image::apply_NN(NN * network, int size, int pos) {
40000834:	deffda04 	addi	sp,sp,-152
40000838:	dfc02515 	stw	ra,148(sp)
4000083c:	df002415 	stw	fp,144(sp)
40000840:	ddc02315 	stw	r23,140(sp)
40000844:	dd802215 	stw	r22,136(sp)
40000848:	dd402115 	stw	r21,132(sp)
4000084c:	dd002015 	stw	r20,128(sp)
40000850:	dcc01f15 	stw	r19,124(sp)
40000854:	dc801e15 	stw	r18,120(sp)
40000858:	dc401d15 	stw	r17,116(sp)
4000085c:	dc001c15 	stw	r16,112(sp)
40000860:	df002404 	addi	fp,sp,144
40000864:	e13fe315 	stw	r4,-116(fp)
40000868:	e17fe415 	stw	r5,-112(fp)
4000086c:	e1bfe515 	stw	r6,-108(fp)
40000870:	e1ffe615 	stw	r7,-104(fp)
40000874:	00900034 	movhi	r2,16384
40000878:	108ab504 	addi	r2,r2,10964
4000087c:	e0bfed15 	stw	r2,-76(fp)
40000880:	00900074 	movhi	r2,16385
40000884:	10929704 	addi	r2,r2,19036
40000888:	e0bfee15 	stw	r2,-72(fp)
4000088c:	e0bfef04 	addi	r2,fp,-68
40000890:	e0ffdc04 	addi	r3,fp,-144
40000894:	10c00015 	stw	r3,0(r2)
40000898:	00d00034 	movhi	r3,16384
4000089c:	18c2b304 	addi	r3,r3,2764
400008a0:	10c00115 	stw	r3,4(r2)
400008a4:	16c00215 	stw	sp,8(r2)
400008a8:	e0bfe704 	addi	r2,fp,-100
400008ac:	1009883a 	mov	r4,r2
400008b0:	0007b540 	call	40007b54 <_Unwind_SjLj_Register>
	BYTE* source = new BYTE[size*size]; 
400008b4:	e0ffe517 	ldw	r3,-108(fp)
400008b8:	e0bfe517 	ldw	r2,-108(fp)
400008bc:	1885383a 	mul	r2,r3,r2
400008c0:	00cfe034 	movhi	r3,16256
400008c4:	18800336 	bltu	r3,r2,400008d4 <_ZN5Image8apply_NNEP2NNii+0xa0>
400008c8:	1085883a 	add	r2,r2,r2
400008cc:	1007883a 	mov	r3,r2
400008d0:	00000106 	br	400008d8 <_ZN5Image8apply_NNEP2NNii+0xa4>
400008d4:	00ffffc4 	movi	r3,-1
400008d8:	00bfffc4 	movi	r2,-1
400008dc:	e0bfe815 	stw	r2,-96(fp)
400008e0:	1809883a 	mov	r4,r3
400008e4:	0003b440 	call	40003b44 <_Znaj>
400008e8:	e0bfe015 	stw	r2,-128(fp)
	Image * result = new Image(length-size+1,height-size+1); //-size (pour tenir compte de l'paisseur du kernel)
400008ec:	01000304 	movi	r4,12
400008f0:	00038f80 	call	400038f8 <_Znwj>
400008f4:	e0bff415 	stw	r2,-48(fp)
400008f8:	e0bfe317 	ldw	r2,-116(fp)
400008fc:	10c00117 	ldw	r3,4(r2)
40000900:	e0bfe517 	ldw	r2,-108(fp)
40000904:	1885c83a 	sub	r2,r3,r2
40000908:	11400044 	addi	r5,r2,1
4000090c:	e0bfe317 	ldw	r2,-116(fp)
40000910:	10c00017 	ldw	r3,0(r2)
40000914:	e0bfe517 	ldw	r2,-108(fp)
40000918:	1885c83a 	sub	r2,r3,r2
4000091c:	10c00044 	addi	r3,r2,1
40000920:	00800044 	movi	r2,1
40000924:	e0bfe815 	stw	r2,-96(fp)
40000928:	e13ff417 	ldw	r4,-48(fp)
4000092c:	180d883a 	mov	r6,r3
40000930:	00002200 	call	40000220 <_ZN5ImageC1Eii>
40000934:	e0bff417 	ldw	r2,-48(fp)
40000938:	e0bfe115 	stw	r2,-124(fp)

	for (int y=0; y<=height-size; y++) {
4000093c:	e03fdc15 	stw	zero,-144(fp)
40000940:	00005906 	br	40000aa8 <_ZN5Image8apply_NNEP2NNii+0x274>
		printf("Processing line %i\r\n",y);
40000944:	01100074 	movhi	r4,16385
40000948:	00bfffc4 	movi	r2,-1
4000094c:	e0bfe815 	stw	r2,-96(fp)
40000950:	2112af04 	addi	r4,r4,19132
40000954:	e17fdc17 	ldw	r5,-144(fp)
40000958:	00088500 	call	40008850 <printf>
		for (int x=0; x<=length-size; x++) {
4000095c:	e03fdd15 	stw	zero,-140(fp)
40000960:	00004806 	br	40000a84 <_ZN5Image8apply_NNEP2NNii+0x250>
			/* Appliquer le reseau sur un sous-bloc de l'image */
			for (int j=0; j<size; j++) {
40000964:	e03fde15 	stw	zero,-136(fp)
40000968:	00002606 	br	40000a04 <_ZN5Image8apply_NNEP2NNii+0x1d0>
				for (int i=0; i<size; i++) {
4000096c:	e03fdf15 	stw	zero,-132(fp)
40000970:	00001e06 	br	400009ec <_ZN5Image8apply_NNEP2NNii+0x1b8>
					source[j*size + i] = (*source_pixel(x + i, y + j)) / 255;   // source contient le rsultat des multiplications
40000974:	e0ffde17 	ldw	r3,-136(fp)
40000978:	e0bfe517 	ldw	r2,-108(fp)
4000097c:	1887383a 	mul	r3,r3,r2
40000980:	e0bfdf17 	ldw	r2,-132(fp)
40000984:	1885883a 	add	r2,r3,r2
40000988:	1085883a 	add	r2,r2,r2
4000098c:	1007883a 	mov	r3,r2
40000990:	e0bfe017 	ldw	r2,-128(fp)
40000994:	10c5883a 	add	r2,r2,r3
40000998:	e0bff515 	stw	r2,-44(fp)
4000099c:	e0ffdd17 	ldw	r3,-140(fp)
400009a0:	e0bfdf17 	ldw	r2,-132(fp)
400009a4:	188b883a 	add	r5,r3,r2
400009a8:	e0ffdc17 	ldw	r3,-144(fp)
400009ac:	e0bfde17 	ldw	r2,-136(fp)
400009b0:	1885883a 	add	r2,r3,r2
400009b4:	e13fe317 	ldw	r4,-116(fp)
400009b8:	100d883a 	mov	r6,r2
400009bc:	00007200 	call	40000720 <_ZN5Image12source_pixelEii>
400009c0:	10800003 	ldbu	r2,0(r2)
400009c4:	10803fcc 	andi	r2,r2,255
400009c8:	1009883a 	mov	r4,r2
400009cc:	01403fc4 	movi	r5,255
400009d0:	000519c0 	call	4000519c <__udivsi3>
400009d4:	10803fcc 	andi	r2,r2,255
400009d8:	e0fff517 	ldw	r3,-44(fp)
400009dc:	1880000d 	sth	r2,0(r3)
	for (int y=0; y<=height-size; y++) {
		printf("Processing line %i\r\n",y);
		for (int x=0; x<=length-size; x++) {
			/* Appliquer le reseau sur un sous-bloc de l'image */
			for (int j=0; j<size; j++) {
				for (int i=0; i<size; i++) {
400009e0:	e0bfdf17 	ldw	r2,-132(fp)
400009e4:	10800044 	addi	r2,r2,1
400009e8:	e0bfdf15 	stw	r2,-132(fp)
400009ec:	e0ffdf17 	ldw	r3,-132(fp)
400009f0:	e0bfe517 	ldw	r2,-108(fp)
400009f4:	18bfdf16 	blt	r3,r2,40000974 <__alt_data_end+0xc0000974>

	for (int y=0; y<=height-size; y++) {
		printf("Processing line %i\r\n",y);
		for (int x=0; x<=length-size; x++) {
			/* Appliquer le reseau sur un sous-bloc de l'image */
			for (int j=0; j<size; j++) {
400009f8:	e0bfde17 	ldw	r2,-136(fp)
400009fc:	10800044 	addi	r2,r2,1
40000a00:	e0bfde15 	stw	r2,-136(fp)
40000a04:	e0ffde17 	ldw	r3,-136(fp)
40000a08:	e0bfe517 	ldw	r2,-108(fp)
40000a0c:	18bfd716 	blt	r3,r2,4000096c <__alt_data_end+0xc000096c>
				for (int i=0; i<size; i++) {
					source[j*size + i] = (*source_pixel(x + i, y + j)) / 255;   // source contient le rsultat des multiplications
				}
			}
			network->propagate(source);  // Cette fonction fait les additions des multiplications prcdentes
40000a10:	00bfffc4 	movi	r2,-1
40000a14:	e0bfe815 	stw	r2,-96(fp)
40000a18:	e13fe417 	ldw	r4,-112(fp)
40000a1c:	e17fe017 	ldw	r5,-128(fp)
40000a20:	00010880 	call	40001088 <_ZN2NN9propagateEPs>

			/* Stocker les bons/meilleurs matchs */
			unsigned char pixel;
			pixel = 255*(network->layer[network->n_layer-1].value[pos]);
40000a24:	e0bfe417 	ldw	r2,-112(fp)
40000a28:	10c00217 	ldw	r3,8(r2)
40000a2c:	e0bfe417 	ldw	r2,-112(fp)
40000a30:	10800117 	ldw	r2,4(r2)
40000a34:	10800624 	muli	r2,r2,24
40000a38:	10bffa04 	addi	r2,r2,-24
40000a3c:	1885883a 	add	r2,r3,r2
40000a40:	10c00517 	ldw	r3,20(r2)
40000a44:	e0bfe617 	ldw	r2,-104(fp)
40000a48:	1085883a 	add	r2,r2,r2
40000a4c:	1885883a 	add	r2,r3,r2
40000a50:	1080000b 	ldhu	r2,0(r2)
40000a54:	0085c83a 	sub	r2,zero,r2
40000a58:	e0bfe205 	stb	r2,-120(fp)
			*(result->source_pixel(x,y)) = pixel;
40000a5c:	e13fe117 	ldw	r4,-124(fp)
40000a60:	e17fdd17 	ldw	r5,-140(fp)
40000a64:	e1bfdc17 	ldw	r6,-144(fp)
40000a68:	00007200 	call	40000720 <_ZN5Image12source_pixelEii>
40000a6c:	1007883a 	mov	r3,r2
40000a70:	e0bfe203 	ldbu	r2,-120(fp)
40000a74:	18800005 	stb	r2,0(r3)
	BYTE* source = new BYTE[size*size]; 
	Image * result = new Image(length-size+1,height-size+1); //-size (pour tenir compte de l'paisseur du kernel)

	for (int y=0; y<=height-size; y++) {
		printf("Processing line %i\r\n",y);
		for (int x=0; x<=length-size; x++) {
40000a78:	e0bfdd17 	ldw	r2,-140(fp)
40000a7c:	10800044 	addi	r2,r2,1
40000a80:	e0bfdd15 	stw	r2,-140(fp)
40000a84:	e0bfe317 	ldw	r2,-116(fp)
40000a88:	10c00117 	ldw	r3,4(r2)
40000a8c:	e0bfe517 	ldw	r2,-108(fp)
40000a90:	1887c83a 	sub	r3,r3,r2
40000a94:	e0bfdd17 	ldw	r2,-140(fp)
40000a98:	18bfb20e 	bge	r3,r2,40000964 <__alt_data_end+0xc0000964>
 *******************************************************/
Image * Image::apply_NN(NN * network, int size, int pos) {
	BYTE* source = new BYTE[size*size]; 
	Image * result = new Image(length-size+1,height-size+1); //-size (pour tenir compte de l'paisseur du kernel)

	for (int y=0; y<=height-size; y++) {
40000a9c:	e0bfdc17 	ldw	r2,-144(fp)
40000aa0:	10800044 	addi	r2,r2,1
40000aa4:	e0bfdc15 	stw	r2,-144(fp)
40000aa8:	e0bfe317 	ldw	r2,-116(fp)
40000aac:	10c00017 	ldw	r3,0(r2)
40000ab0:	e0bfe517 	ldw	r2,-108(fp)
40000ab4:	1887c83a 	sub	r3,r3,r2
40000ab8:	e0bfdc17 	ldw	r2,-144(fp)
40000abc:	18bfa10e 	bge	r3,r2,40000944 <__alt_data_end+0xc0000944>
			unsigned char pixel;
			pixel = 255*(network->layer[network->n_layer-1].value[pos]);
			*(result->source_pixel(x,y)) = pixel;
		}
	}
	return result;
40000ac0:	e0bfe117 	ldw	r2,-124(fp)
40000ac4:	e0bff615 	stw	r2,-40(fp)
40000ac8:	00000a06 	br	40000af4 <_ZN5Image8apply_NNEP2NNii+0x2c0>
40000acc:	e7002404 	addi	fp,fp,144
40000ad0:	e0bfe917 	ldw	r2,-92(fp)
40000ad4:	e0bff715 	stw	r2,-36(fp)
 * image a l'entree de ce reseau de neuronnes.
 *
 *******************************************************/
Image * Image::apply_NN(NN * network, int size, int pos) {
	BYTE* source = new BYTE[size*size]; 
	Image * result = new Image(length-size+1,height-size+1); //-size (pour tenir compte de l'paisseur du kernel)
40000ad8:	e13ff417 	ldw	r4,-48(fp)
40000adc:	00034e80 	call	400034e8 <_ZdlPv>
40000ae0:	e0fff717 	ldw	r3,-36(fp)
40000ae4:	00bfffc4 	movi	r2,-1
40000ae8:	e0bfe815 	stw	r2,-96(fp)
40000aec:	1809883a 	mov	r4,r3
40000af0:	0007d500 	call	40007d50 <_Unwind_SjLj_Resume>
40000af4:	e0bfe704 	addi	r2,fp,-100
40000af8:	1009883a 	mov	r4,r2
40000afc:	0007b6c0 	call	40007b6c <_Unwind_SjLj_Unregister>
			pixel = 255*(network->layer[network->n_layer-1].value[pos]);
			*(result->source_pixel(x,y)) = pixel;
		}
	}
	return result;
}
40000b00:	e0bff617 	ldw	r2,-40(fp)
40000b04:	e6fff804 	addi	sp,fp,-32
40000b08:	dfc00917 	ldw	ra,36(sp)
40000b0c:	df000817 	ldw	fp,32(sp)
40000b10:	ddc00717 	ldw	r23,28(sp)
40000b14:	dd800617 	ldw	r22,24(sp)
40000b18:	dd400517 	ldw	r21,20(sp)
40000b1c:	dd000417 	ldw	r20,16(sp)
40000b20:	dcc00317 	ldw	r19,12(sp)
40000b24:	dc800217 	ldw	r18,8(sp)
40000b28:	dc400117 	ldw	r17,4(sp)
40000b2c:	dc000017 	ldw	r16,0(sp)
40000b30:	dec00a04 	addi	sp,sp,40
40000b34:	f800283a 	ret

40000b38 <_ZN5Image13printToScreenEiiP3VGA>:
/**********************************************************
 * Affiche l'image a l'ecran a la position x,y.
 *
 **********************************************************/

void Image::printToScreen(int x, int y, VGA *pVGA) {
40000b38:	defff604 	addi	sp,sp,-40
40000b3c:	dfc00915 	stw	ra,36(sp)
40000b40:	df000815 	stw	fp,32(sp)
40000b44:	dc400715 	stw	r17,28(sp)
40000b48:	dc000615 	stw	r16,24(sp)
40000b4c:	df000804 	addi	fp,sp,32
40000b50:	e13ffa15 	stw	r4,-24(fp)
40000b54:	e17ffb15 	stw	r5,-20(fp)
40000b58:	e1bffc15 	stw	r6,-16(fp)
40000b5c:	e1fffd15 	stw	r7,-12(fp)
	for(int i=0; i<length; i++) {
40000b60:	e03ff815 	stw	zero,-32(fp)
40000b64:	00001f06 	br	40000be4 <_ZN5Image13printToScreenEiiP3VGA+0xac>
		for(int j=0; j<height; j++) {
40000b68:	e03ff915 	stw	zero,-28(fp)
40000b6c:	00001606 	br	40000bc8 <_ZN5Image13printToScreenEiiP3VGA+0x90>
			pVGA->Set_Pixel_Color(x+i,y+j,*source_pixel(i,j));
40000b70:	e0fffb17 	ldw	r3,-20(fp)
40000b74:	e0bff817 	ldw	r2,-32(fp)
40000b78:	1885883a 	add	r2,r3,r2
40000b7c:	1023883a 	mov	r17,r2
40000b80:	e0fffc17 	ldw	r3,-16(fp)
40000b84:	e0bff917 	ldw	r2,-28(fp)
40000b88:	1885883a 	add	r2,r3,r2
40000b8c:	1021883a 	mov	r16,r2
40000b90:	e13ffa17 	ldw	r4,-24(fp)
40000b94:	e17ff817 	ldw	r5,-32(fp)
40000b98:	e1bff917 	ldw	r6,-28(fp)
40000b9c:	00007200 	call	40000720 <_ZN5Image12source_pixelEii>
40000ba0:	10800003 	ldbu	r2,0(r2)
40000ba4:	10803fcc 	andi	r2,r2,255
40000ba8:	e13ffd17 	ldw	r4,-12(fp)
40000bac:	880b883a 	mov	r5,r17
40000bb0:	800d883a 	mov	r6,r16
40000bb4:	100f883a 	mov	r7,r2
40000bb8:	0000d0c0 	call	40000d0c <_ZN3VGA15Set_Pixel_ColorEjjj>
 *
 **********************************************************/

void Image::printToScreen(int x, int y, VGA *pVGA) {
	for(int i=0; i<length; i++) {
		for(int j=0; j<height; j++) {
40000bbc:	e0bff917 	ldw	r2,-28(fp)
40000bc0:	10800044 	addi	r2,r2,1
40000bc4:	e0bff915 	stw	r2,-28(fp)
40000bc8:	e0bffa17 	ldw	r2,-24(fp)
40000bcc:	10800017 	ldw	r2,0(r2)
40000bd0:	e0fff917 	ldw	r3,-28(fp)
40000bd4:	18bfe616 	blt	r3,r2,40000b70 <__alt_data_end+0xc0000b70>
 * Affiche l'image a l'ecran a la position x,y.
 *
 **********************************************************/

void Image::printToScreen(int x, int y, VGA *pVGA) {
	for(int i=0; i<length; i++) {
40000bd8:	e0bff817 	ldw	r2,-32(fp)
40000bdc:	10800044 	addi	r2,r2,1
40000be0:	e0bff815 	stw	r2,-32(fp)
40000be4:	e0bffa17 	ldw	r2,-24(fp)
40000be8:	10800117 	ldw	r2,4(r2)
40000bec:	e0fff817 	ldw	r3,-32(fp)
40000bf0:	18bfdd16 	blt	r3,r2,40000b68 <__alt_data_end+0xc0000b68>
		for(int j=0; j<height; j++) {
			pVGA->Set_Pixel_Color(x+i,y+j,*source_pixel(i,j));
		}
	}
}
40000bf4:	e6fffe04 	addi	sp,fp,-8
40000bf8:	dfc00317 	ldw	ra,12(sp)
40000bfc:	df000217 	ldw	fp,8(sp)
40000c00:	dc400117 	ldw	r17,4(sp)
40000c04:	dc000017 	ldw	r16,0(sp)
40000c08:	dec00404 	addi	sp,sp,16
40000c0c:	f800283a 	ret

40000c10 <_ZN5Image5printEv>:

/**********************************************************
 * Affiche l'image a l'ecran a la position x,y.
 *
 **********************************************************/
void Image::print() {
40000c10:	defffa04 	addi	sp,sp,-24
40000c14:	dfc00515 	stw	ra,20(sp)
40000c18:	df000415 	stw	fp,16(sp)
40000c1c:	df000404 	addi	fp,sp,16
40000c20:	e13fff15 	stw	r4,-4(fp)
	printf("\n");
40000c24:	01000284 	movi	r4,10
40000c28:	00088940 	call	40008894 <putchar>
	for(int i=0; i<length; i++) {
40000c2c:	e03ffc15 	stw	zero,-16(fp)
40000c30:	00001906 	br	40000c98 <_ZN5Image5printEv+0x88>
		for(int j=0; j<height; j++) {
40000c34:	e03ffd15 	stw	zero,-12(fp)
40000c38:	00000e06 	br	40000c74 <_ZN5Image5printEv+0x64>
			int value = (int) *source_pixel(i,j);
40000c3c:	e13fff17 	ldw	r4,-4(fp)
40000c40:	e17ffc17 	ldw	r5,-16(fp)
40000c44:	e1bffd17 	ldw	r6,-12(fp)
40000c48:	00007200 	call	40000720 <_ZN5Image12source_pixelEii>
40000c4c:	10800003 	ldbu	r2,0(r2)
40000c50:	10803fcc 	andi	r2,r2,255
40000c54:	e0bffe15 	stw	r2,-8(fp)
			printf("%i,",value);
40000c58:	01100074 	movhi	r4,16385
40000c5c:	2112b504 	addi	r4,r4,19156
40000c60:	e17ffe17 	ldw	r5,-8(fp)
40000c64:	00088500 	call	40008850 <printf>
 *
 **********************************************************/
void Image::print() {
	printf("\n");
	for(int i=0; i<length; i++) {
		for(int j=0; j<height; j++) {
40000c68:	e0bffd17 	ldw	r2,-12(fp)
40000c6c:	10800044 	addi	r2,r2,1
40000c70:	e0bffd15 	stw	r2,-12(fp)
40000c74:	e0bfff17 	ldw	r2,-4(fp)
40000c78:	10800017 	ldw	r2,0(r2)
40000c7c:	e0fffd17 	ldw	r3,-12(fp)
40000c80:	18bfee16 	blt	r3,r2,40000c3c <__alt_data_end+0xc0000c3c>
			int value = (int) *source_pixel(i,j);
			printf("%i,",value);
		}
		printf("\n");
40000c84:	01000284 	movi	r4,10
40000c88:	00088940 	call	40008894 <putchar>
 * Affiche l'image a l'ecran a la position x,y.
 *
 **********************************************************/
void Image::print() {
	printf("\n");
	for(int i=0; i<length; i++) {
40000c8c:	e0bffc17 	ldw	r2,-16(fp)
40000c90:	10800044 	addi	r2,r2,1
40000c94:	e0bffc15 	stw	r2,-16(fp)
40000c98:	e0bfff17 	ldw	r2,-4(fp)
40000c9c:	10800117 	ldw	r2,4(r2)
40000ca0:	e0fffc17 	ldw	r3,-16(fp)
40000ca4:	18bfe316 	blt	r3,r2,40000c34 <__alt_data_end+0xc0000c34>
			int value = (int) *source_pixel(i,j);
			printf("%i,",value);
		}
		printf("\n");
	}
}
40000ca8:	e037883a 	mov	sp,fp
40000cac:	dfc00117 	ldw	ra,4(sp)
40000cb0:	df000017 	ldw	fp,0(sp)
40000cb4:	dec00204 	addi	sp,sp,8
40000cb8:	f800283a 	ret

40000cbc <_ZN5ImageD1Ev>:

Image::~Image() {
40000cbc:	defffd04 	addi	sp,sp,-12
40000cc0:	dfc00215 	stw	ra,8(sp)
40000cc4:	df000115 	stw	fp,4(sp)
40000cc8:	df000104 	addi	fp,sp,4
40000ccc:	e13fff15 	stw	r4,-4(fp)
	if (source_array != 0) delete[] source_array;
40000cd0:	e0bfff17 	ldw	r2,-4(fp)
40000cd4:	10800217 	ldw	r2,8(r2)
40000cd8:	10000726 	beq	r2,zero,40000cf8 <_ZN5ImageD1Ev+0x3c>
40000cdc:	e0bfff17 	ldw	r2,-4(fp)
40000ce0:	10800217 	ldw	r2,8(r2)
40000ce4:	10000426 	beq	r2,zero,40000cf8 <_ZN5ImageD1Ev+0x3c>
40000ce8:	e0bfff17 	ldw	r2,-4(fp)
40000cec:	10800217 	ldw	r2,8(r2)
40000cf0:	1009883a 	mov	r4,r2
40000cf4:	0003c300 	call	40003c30 <_ZdaPv>
}
40000cf8:	e037883a 	mov	sp,fp
40000cfc:	dfc00117 	ldw	ra,4(sp)
40000d00:	df000017 	ldw	fp,0(sp)
40000d04:	dec00204 	addi	sp,sp,8
40000d08:	f800283a 	ret

40000d0c <_ZN3VGA15Set_Pixel_ColorEjjj>:
		if ( (x>=640) || (y>=480) ) return;
		int address = 640*y+x;
		IOWR_8DIRECT(memory_address, address, 192);
	}

	inline void Set_Pixel_Color(unsigned int x, unsigned int y, unsigned int color) {
40000d0c:	defffa04 	addi	sp,sp,-24
40000d10:	df000515 	stw	fp,20(sp)
40000d14:	df000504 	addi	fp,sp,20
40000d18:	e13ffc15 	stw	r4,-16(fp)
40000d1c:	e17ffd15 	stw	r5,-12(fp)
40000d20:	e1bffe15 	stw	r6,-8(fp)
40000d24:	e1ffff15 	stw	r7,-4(fp)
		if ( (x>=640) || (y>=480) ) return;
40000d28:	e0bffd17 	ldw	r2,-12(fp)
40000d2c:	1080a028 	cmpgeui	r2,r2,640
40000d30:	1000031e 	bne	r2,zero,40000d40 <_ZN3VGA15Set_Pixel_ColorEjjj+0x34>
40000d34:	e0bffe17 	ldw	r2,-8(fp)
40000d38:	10807830 	cmpltui	r2,r2,480
40000d3c:	1000011e 	bne	r2,zero,40000d44 <_ZN3VGA15Set_Pixel_ColorEjjj+0x38>
40000d40:	00000d06 	br	40000d78 <_ZN3VGA15Set_Pixel_ColorEjjj+0x6c>
		int address = 640*y+x;
40000d44:	e0bffe17 	ldw	r2,-8(fp)
40000d48:	10c0a024 	muli	r3,r2,640
40000d4c:	e0bffd17 	ldw	r2,-12(fp)
40000d50:	1885883a 	add	r2,r3,r2
40000d54:	e0bffb15 	stw	r2,-20(fp)
		IOWR_8DIRECT(memory_address, address, color);
40000d58:	e0bffc17 	ldw	r2,-16(fp)
40000d5c:	10800117 	ldw	r2,4(r2)
40000d60:	1007883a 	mov	r3,r2
40000d64:	e0bffb17 	ldw	r2,-20(fp)
40000d68:	1885883a 	add	r2,r3,r2
40000d6c:	1007883a 	mov	r3,r2
40000d70:	e0bfff17 	ldw	r2,-4(fp)
40000d74:	18800025 	stbio	r2,0(r3)
	}
40000d78:	e037883a 	mov	sp,fp
40000d7c:	df000017 	ldw	fp,0(sp)
40000d80:	dec00104 	addi	sp,sp,4
40000d84:	f800283a 	ret

40000d88 <_ZN2NNC1Ei>:
 */

#include "NN.h"
#include "stdio.h"

NN::NN(int new_n_layer) {
40000d88:	deffdf04 	addi	sp,sp,-132
40000d8c:	dfc02015 	stw	ra,128(sp)
40000d90:	df001f15 	stw	fp,124(sp)
40000d94:	ddc01e15 	stw	r23,120(sp)
40000d98:	dd801d15 	stw	r22,116(sp)
40000d9c:	dd401c15 	stw	r21,112(sp)
40000da0:	dd001b15 	stw	r20,108(sp)
40000da4:	dcc01a15 	stw	r19,104(sp)
40000da8:	dc801915 	stw	r18,100(sp)
40000dac:	dc401815 	stw	r17,96(sp)
40000db0:	dc001715 	stw	r16,92(sp)
40000db4:	df001f04 	addi	fp,sp,124
40000db8:	e13fe115 	stw	r4,-124(fp)
40000dbc:	e17fe215 	stw	r5,-120(fp)
40000dc0:	00900034 	movhi	r2,16384
40000dc4:	108ab504 	addi	r2,r2,10964
40000dc8:	e0bfe915 	stw	r2,-92(fp)
40000dcc:	00900074 	movhi	r2,16385
40000dd0:	10929884 	addi	r2,r2,19042
40000dd4:	e0bfea15 	stw	r2,-88(fp)
40000dd8:	e0bfeb04 	addi	r2,fp,-84
40000ddc:	e0ffe104 	addi	r3,fp,-124
40000de0:	10c00015 	stw	r3,0(r2)
40000de4:	00d00034 	movhi	r3,16384
40000de8:	18c3b504 	addi	r3,r3,3796
40000dec:	10c00115 	stw	r3,4(r2)
40000df0:	16c00215 	stw	sp,8(r2)
40000df4:	e0bfe304 	addi	r2,fp,-116
40000df8:	1009883a 	mov	r4,r2
40000dfc:	0007b540 	call	40007b54 <_Unwind_SjLj_Register>
40000e00:	e0ffe117 	ldw	r3,-124(fp)
40000e04:	00900074 	movhi	r2,16385
40000e08:	1092c304 	addi	r2,r2,19212
40000e0c:	18800015 	stw	r2,0(r3)
	// TODO Auto-generated constructor stub
	n_layer = new_n_layer;
40000e10:	e0bfe117 	ldw	r2,-124(fp)
40000e14:	e0ffe217 	ldw	r3,-120(fp)
40000e18:	10c00115 	stw	r3,4(r2)
	layer = new NNLayer[n_layer];
40000e1c:	e0bfe117 	ldw	r2,-124(fp)
40000e20:	10800117 	ldw	r2,4(r2)
40000e24:	e0bff315 	stw	r2,-52(fp)
40000e28:	00815434 	movhi	r2,1360
40000e2c:	e0fff317 	ldw	r3,-52(fp)
40000e30:	10c00436 	bltu	r2,r3,40000e44 <_ZN2NNC1Ei+0xbc>
40000e34:	e0fff317 	ldw	r3,-52(fp)
40000e38:	18800624 	muli	r2,r3,24
40000e3c:	10800104 	addi	r2,r2,4
40000e40:	00000106 	br	40000e48 <_ZN2NNC1Ei+0xc0>
40000e44:	00bfffc4 	movi	r2,-1
40000e48:	00ffffc4 	movi	r3,-1
40000e4c:	e0ffe415 	stw	r3,-112(fp)
40000e50:	1009883a 	mov	r4,r2
40000e54:	0003b440 	call	40003b44 <_Znaj>
40000e58:	e0bff415 	stw	r2,-48(fp)
40000e5c:	e0fff317 	ldw	r3,-52(fp)
40000e60:	e0bff417 	ldw	r2,-48(fp)
40000e64:	10c00015 	stw	r3,0(r2)
40000e68:	e0bff417 	ldw	r2,-48(fp)
40000e6c:	10800104 	addi	r2,r2,4
40000e70:	e0bff515 	stw	r2,-44(fp)
40000e74:	e0fff317 	ldw	r3,-52(fp)
40000e78:	18bfffc4 	addi	r2,r3,-1
40000e7c:	e0bff115 	stw	r2,-60(fp)
40000e80:	e0bff517 	ldw	r2,-44(fp)
40000e84:	e0bff015 	stw	r2,-64(fp)
40000e88:	00000a06 	br	40000eb4 <_ZN2NNC1Ei+0x12c>
40000e8c:	00800044 	movi	r2,1
40000e90:	e0bfe415 	stw	r2,-112(fp)
40000e94:	e13ff017 	ldw	r4,-64(fp)
40000e98:	00014a00 	call	400014a0 <_ZN7NNLayerC1Ev>
40000e9c:	e0fff017 	ldw	r3,-64(fp)
40000ea0:	18c00604 	addi	r3,r3,24
40000ea4:	e0fff015 	stw	r3,-64(fp)
40000ea8:	e0bff117 	ldw	r2,-60(fp)
40000eac:	10bfffc4 	addi	r2,r2,-1
40000eb0:	e0bff115 	stw	r2,-60(fp)
40000eb4:	e0fff117 	ldw	r3,-60(fp)
40000eb8:	18bfffd8 	cmpnei	r2,r3,-1
40000ebc:	103ff31e 	bne	r2,zero,40000e8c <__alt_data_end+0xc0000e8c>
40000ec0:	e0bff417 	ldw	r2,-48(fp)
40000ec4:	10c00104 	addi	r3,r2,4
40000ec8:	e0bfe117 	ldw	r2,-124(fp)
40000ecc:	10c00215 	stw	r3,8(r2)
40000ed0:	00002306 	br	40000f60 <_ZN2NNC1Ei+0x1d8>
40000ed4:	e7001f04 	addi	fp,fp,124
40000ed8:	e0bfe517 	ldw	r2,-108(fp)
40000edc:	e0bff715 	stw	r2,-36(fp)
40000ee0:	e0fff517 	ldw	r3,-44(fp)
40000ee4:	18001526 	beq	r3,zero,40000f3c <_ZN2NNC1Ei+0x1b4>
40000ee8:	e0bff117 	ldw	r2,-60(fp)
40000eec:	e0fff317 	ldw	r3,-52(fp)
40000ef0:	1885c83a 	sub	r2,r3,r2
40000ef4:	10800624 	muli	r2,r2,24
40000ef8:	10bffa04 	addi	r2,r2,-24
40000efc:	e0fff517 	ldw	r3,-44(fp)
40000f00:	1885883a 	add	r2,r3,r2
40000f04:	e0bff215 	stw	r2,-56(fp)
40000f08:	e0bff217 	ldw	r2,-56(fp)
40000f0c:	e0fff517 	ldw	r3,-44(fp)
40000f10:	10c00a26 	beq	r2,r3,40000f3c <_ZN2NNC1Ei+0x1b4>
40000f14:	e0bff217 	ldw	r2,-56(fp)
40000f18:	10bffa04 	addi	r2,r2,-24
40000f1c:	e0bff215 	stw	r2,-56(fp)
40000f20:	e0fff217 	ldw	r3,-56(fp)
40000f24:	18800017 	ldw	r2,0(r3)
40000f28:	10800017 	ldw	r2,0(r2)
40000f2c:	e03fe415 	stw	zero,-112(fp)
40000f30:	e13ff217 	ldw	r4,-56(fp)
40000f34:	103ee83a 	callr	r2
40000f38:	003ff306 	br	40000f08 <__alt_data_end+0xc0000f08>
40000f3c:	e0bff717 	ldw	r2,-36(fp)
40000f40:	e0bff615 	stw	r2,-40(fp)
40000f44:	e13ff417 	ldw	r4,-48(fp)
40000f48:	0003c300 	call	40003c30 <_ZdaPv>
40000f4c:	e0fff617 	ldw	r3,-40(fp)
40000f50:	00bfffc4 	movi	r2,-1
40000f54:	e0bfe415 	stw	r2,-112(fp)
40000f58:	1809883a 	mov	r4,r3
40000f5c:	0007d500 	call	40007d50 <_Unwind_SjLj_Resume>
40000f60:	e0bfe304 	addi	r2,fp,-116
40000f64:	1009883a 	mov	r4,r2
40000f68:	0007b6c0 	call	40007b6c <_Unwind_SjLj_Unregister>
}
40000f6c:	e6fff804 	addi	sp,fp,-32
40000f70:	dfc00917 	ldw	ra,36(sp)
40000f74:	df000817 	ldw	fp,32(sp)
40000f78:	ddc00717 	ldw	r23,28(sp)
40000f7c:	dd800617 	ldw	r22,24(sp)
40000f80:	dd400517 	ldw	r21,20(sp)
40000f84:	dd000417 	ldw	r20,16(sp)
40000f88:	dcc00317 	ldw	r19,12(sp)
40000f8c:	dc800217 	ldw	r18,8(sp)
40000f90:	dc400117 	ldw	r17,4(sp)
40000f94:	dc000017 	ldw	r16,0(sp)
40000f98:	dec00a04 	addi	sp,sp,40
40000f9c:	f800283a 	ret

40000fa0 <_ZN2NND1Ev>:

NN::~NN() {
40000fa0:	defffd04 	addi	sp,sp,-12
40000fa4:	dfc00215 	stw	ra,8(sp)
40000fa8:	df000115 	stw	fp,4(sp)
40000fac:	df000104 	addi	fp,sp,4
40000fb0:	e13fff15 	stw	r4,-4(fp)
40000fb4:	e0ffff17 	ldw	r3,-4(fp)
40000fb8:	00900074 	movhi	r2,16385
40000fbc:	1092c304 	addi	r2,r2,19212
40000fc0:	18800015 	stw	r2,0(r3)
	// TODO Auto-generated destructor stub
}
40000fc4:	0005883a 	mov	r2,zero
40000fc8:	10000226 	beq	r2,zero,40000fd4 <_ZN2NND1Ev+0x34>
40000fcc:	e13fff17 	ldw	r4,-4(fp)
40000fd0:	00034e80 	call	400034e8 <_ZdlPv>
40000fd4:	e037883a 	mov	sp,fp
40000fd8:	dfc00117 	ldw	ra,4(sp)
40000fdc:	df000017 	ldw	fp,0(sp)
40000fe0:	dec00204 	addi	sp,sp,8
40000fe4:	f800283a 	ret

40000fe8 <_ZN2NND0Ev>:
	// TODO Auto-generated constructor stub
	n_layer = new_n_layer;
	layer = new NNLayer[n_layer];
}

NN::~NN() {
40000fe8:	defffd04 	addi	sp,sp,-12
40000fec:	dfc00215 	stw	ra,8(sp)
40000ff0:	df000115 	stw	fp,4(sp)
40000ff4:	df000104 	addi	fp,sp,4
40000ff8:	e13fff15 	stw	r4,-4(fp)
	// TODO Auto-generated destructor stub
}
40000ffc:	e13fff17 	ldw	r4,-4(fp)
40001000:	0000fa00 	call	40000fa0 <_ZN2NND1Ev>
40001004:	e13fff17 	ldw	r4,-4(fp)
40001008:	00034e80 	call	400034e8 <_ZdlPv>
4000100c:	e037883a 	mov	sp,fp
40001010:	dfc00117 	ldw	ra,4(sp)
40001014:	df000017 	ldw	fp,0(sp)
40001018:	dec00204 	addi	sp,sp,8
4000101c:	f800283a 	ret

40001020 <_ZN2NN12make_ternaryEv>:

void NN::make_ternary() {
40001020:	defffc04 	addi	sp,sp,-16
40001024:	dfc00315 	stw	ra,12(sp)
40001028:	df000215 	stw	fp,8(sp)
4000102c:	df000204 	addi	fp,sp,8
40001030:	e13fff15 	stw	r4,-4(fp)
	for (int i=0; i<n_layer; i++) {
40001034:	e03ffe15 	stw	zero,-8(fp)
40001038:	00000a06 	br	40001064 <_ZN2NN12make_ternaryEv+0x44>
		layer[i].make_ternary();
4000103c:	e0bfff17 	ldw	r2,-4(fp)
40001040:	10c00217 	ldw	r3,8(r2)
40001044:	e0bffe17 	ldw	r2,-8(fp)
40001048:	10800624 	muli	r2,r2,24
4000104c:	1885883a 	add	r2,r3,r2
40001050:	1009883a 	mov	r4,r2
40001054:	000196c0 	call	4000196c <_ZN7NNLayer12make_ternaryEv>
NN::~NN() {
	// TODO Auto-generated destructor stub
}

void NN::make_ternary() {
	for (int i=0; i<n_layer; i++) {
40001058:	e0bffe17 	ldw	r2,-8(fp)
4000105c:	10800044 	addi	r2,r2,1
40001060:	e0bffe15 	stw	r2,-8(fp)
40001064:	e0bfff17 	ldw	r2,-4(fp)
40001068:	10800117 	ldw	r2,4(r2)
4000106c:	e0fffe17 	ldw	r3,-8(fp)
40001070:	18bff216 	blt	r3,r2,4000103c <__alt_data_end+0xc000103c>
		layer[i].make_ternary();
	}
}
40001074:	e037883a 	mov	sp,fp
40001078:	dfc00117 	ldw	ra,4(sp)
4000107c:	df000017 	ldw	fp,0(sp)
40001080:	dec00204 	addi	sp,sp,8
40001084:	f800283a 	ret

40001088 <_ZN2NN9propagateEPs>:

BYTE * NN::propagate(BYTE * source) {
40001088:	defffb04 	addi	sp,sp,-20
4000108c:	dfc00415 	stw	ra,16(sp)
40001090:	df000315 	stw	fp,12(sp)
40001094:	df000304 	addi	fp,sp,12
40001098:	e13ffe15 	stw	r4,-8(fp)
4000109c:	e17fff15 	stw	r5,-4(fp)
	for (int i=0; i<n_layer; i++) {
400010a0:	e03ffd15 	stw	zero,-12(fp)
400010a4:	00000c06 	br	400010d8 <_ZN2NN9propagateEPs+0x50>
		source = layer[i].propagate(source);
400010a8:	e0bffe17 	ldw	r2,-8(fp)
400010ac:	10c00217 	ldw	r3,8(r2)
400010b0:	e0bffd17 	ldw	r2,-12(fp)
400010b4:	10800624 	muli	r2,r2,24
400010b8:	1885883a 	add	r2,r3,r2
400010bc:	1009883a 	mov	r4,r2
400010c0:	e17fff17 	ldw	r5,-4(fp)
400010c4:	0001bc00 	call	40001bc0 <_ZN7NNLayer9propagateEPs>
400010c8:	e0bfff15 	stw	r2,-4(fp)
		layer[i].make_ternary();
	}
}

BYTE * NN::propagate(BYTE * source) {
	for (int i=0; i<n_layer; i++) {
400010cc:	e0bffd17 	ldw	r2,-12(fp)
400010d0:	10800044 	addi	r2,r2,1
400010d4:	e0bffd15 	stw	r2,-12(fp)
400010d8:	e0bffe17 	ldw	r2,-8(fp)
400010dc:	10800117 	ldw	r2,4(r2)
400010e0:	e0fffd17 	ldw	r3,-12(fp)
400010e4:	18bff016 	blt	r3,r2,400010a8 <__alt_data_end+0xc00010a8>
		source = layer[i].propagate(source);
	}
	return source;
400010e8:	e0bfff17 	ldw	r2,-4(fp)
}
400010ec:	e037883a 	mov	sp,fp
400010f0:	dfc00117 	ldw	ra,4(sp)
400010f4:	df000017 	ldw	fp,0(sp)
400010f8:	dec00204 	addi	sp,sp,8
400010fc:	f800283a 	ret

40001100 <_ZN2NN17getMaxOutputIndexEv>:

int NN::getMaxOutputIndex() {
40001100:	defffb04 	addi	sp,sp,-20
40001104:	df000415 	stw	fp,16(sp)
40001108:	df000404 	addi	fp,sp,16
4000110c:	e13fff15 	stw	r4,-4(fp)
	float maxval = layer[n_layer-1].value[0];
40001110:	e0bfff17 	ldw	r2,-4(fp)
40001114:	10c00217 	ldw	r3,8(r2)
40001118:	e0bfff17 	ldw	r2,-4(fp)
4000111c:	10800117 	ldw	r2,4(r2)
40001120:	10800624 	muli	r2,r2,24
40001124:	10bffa04 	addi	r2,r2,-24
40001128:	1885883a 	add	r2,r3,r2
4000112c:	10800517 	ldw	r2,20(r2)
40001130:	1080000b 	ldhu	r2,0(r2)
40001134:	10bfffcc 	andi	r2,r2,65535
40001138:	10a0001c 	xori	r2,r2,32768
4000113c:	10a00004 	addi	r2,r2,-32768
40001140:	1005feb2 	custom	250,r2,r2,zero
40001144:	e0bffc15 	stw	r2,-16(fp)
	int maxindex = 0;
40001148:	e03ffd15 	stw	zero,-12(fp)
	for(int i=1; i<layer[n_layer-1].n_neuron; i++) {
4000114c:	00800044 	movi	r2,1
40001150:	e0bffe15 	stw	r2,-8(fp)
40001154:	00002906 	br	400011fc <_ZN2NN17getMaxOutputIndexEv+0xfc>
		if( layer[n_layer-1].value[i] > maxval) {
40001158:	e0bfff17 	ldw	r2,-4(fp)
4000115c:	10c00217 	ldw	r3,8(r2)
40001160:	e0bfff17 	ldw	r2,-4(fp)
40001164:	10800117 	ldw	r2,4(r2)
40001168:	10800624 	muli	r2,r2,24
4000116c:	10bffa04 	addi	r2,r2,-24
40001170:	1885883a 	add	r2,r3,r2
40001174:	10c00517 	ldw	r3,20(r2)
40001178:	e0bffe17 	ldw	r2,-8(fp)
4000117c:	1085883a 	add	r2,r2,r2
40001180:	1885883a 	add	r2,r3,r2
40001184:	1080000b 	ldhu	r2,0(r2)
40001188:	10bfffcc 	andi	r2,r2,65535
4000118c:	10a0001c 	xori	r2,r2,32768
40001190:	10a00004 	addi	r2,r2,-32768
40001194:	1007feb2 	custom	250,r3,r2,zero
40001198:	e0bffc17 	ldw	r2,-16(fp)
4000119c:	1885f972 	custom	229,r2,r3,r2
400011a0:	10001326 	beq	r2,zero,400011f0 <_ZN2NN17getMaxOutputIndexEv+0xf0>
			maxval = layer[n_layer-1].value[i];
400011a4:	e0bfff17 	ldw	r2,-4(fp)
400011a8:	10c00217 	ldw	r3,8(r2)
400011ac:	e0bfff17 	ldw	r2,-4(fp)
400011b0:	10800117 	ldw	r2,4(r2)
400011b4:	10800624 	muli	r2,r2,24
400011b8:	10bffa04 	addi	r2,r2,-24
400011bc:	1885883a 	add	r2,r3,r2
400011c0:	10c00517 	ldw	r3,20(r2)
400011c4:	e0bffe17 	ldw	r2,-8(fp)
400011c8:	1085883a 	add	r2,r2,r2
400011cc:	1885883a 	add	r2,r3,r2
400011d0:	1080000b 	ldhu	r2,0(r2)
400011d4:	10bfffcc 	andi	r2,r2,65535
400011d8:	10a0001c 	xori	r2,r2,32768
400011dc:	10a00004 	addi	r2,r2,-32768
400011e0:	1005feb2 	custom	250,r2,r2,zero
400011e4:	e0bffc15 	stw	r2,-16(fp)
			maxindex = i;
400011e8:	e0bffe17 	ldw	r2,-8(fp)
400011ec:	e0bffd15 	stw	r2,-12(fp)
}

int NN::getMaxOutputIndex() {
	float maxval = layer[n_layer-1].value[0];
	int maxindex = 0;
	for(int i=1; i<layer[n_layer-1].n_neuron; i++) {
400011f0:	e0bffe17 	ldw	r2,-8(fp)
400011f4:	10800044 	addi	r2,r2,1
400011f8:	e0bffe15 	stw	r2,-8(fp)
400011fc:	e0bfff17 	ldw	r2,-4(fp)
40001200:	10c00217 	ldw	r3,8(r2)
40001204:	e0bfff17 	ldw	r2,-4(fp)
40001208:	10800117 	ldw	r2,4(r2)
4000120c:	10800624 	muli	r2,r2,24
40001210:	10bffa04 	addi	r2,r2,-24
40001214:	1885883a 	add	r2,r3,r2
40001218:	10800217 	ldw	r2,8(r2)
4000121c:	e0fffe17 	ldw	r3,-8(fp)
40001220:	18bfcd16 	blt	r3,r2,40001158 <__alt_data_end+0xc0001158>
		if( layer[n_layer-1].value[i] > maxval) {
			maxval = layer[n_layer-1].value[i];
			maxindex = i;
		}
	}
	return maxindex;
40001224:	e0bffd17 	ldw	r2,-12(fp)
}
40001228:	e037883a 	mov	sp,fp
4000122c:	df000017 	ldw	fp,0(sp)
40001230:	dec00104 	addi	sp,sp,4
40001234:	f800283a 	ret

40001238 <_ZN2NN17getMaxOutputValueEv>:

int NN::getMaxOutputValue() {
40001238:	defffc04 	addi	sp,sp,-16
4000123c:	df000315 	stw	fp,12(sp)
40001240:	df000304 	addi	fp,sp,12
40001244:	e13fff15 	stw	r4,-4(fp)
	float maxval = layer[n_layer-1].value[0];
40001248:	e0bfff17 	ldw	r2,-4(fp)
4000124c:	10c00217 	ldw	r3,8(r2)
40001250:	e0bfff17 	ldw	r2,-4(fp)
40001254:	10800117 	ldw	r2,4(r2)
40001258:	10800624 	muli	r2,r2,24
4000125c:	10bffa04 	addi	r2,r2,-24
40001260:	1885883a 	add	r2,r3,r2
40001264:	10800517 	ldw	r2,20(r2)
40001268:	1080000b 	ldhu	r2,0(r2)
4000126c:	10bfffcc 	andi	r2,r2,65535
40001270:	10a0001c 	xori	r2,r2,32768
40001274:	10a00004 	addi	r2,r2,-32768
40001278:	1005feb2 	custom	250,r2,r2,zero
4000127c:	e0bffd15 	stw	r2,-12(fp)
	for(int i=1; i<layer[n_layer-1].n_neuron; i++) {
40001280:	00800044 	movi	r2,1
40001284:	e0bffe15 	stw	r2,-8(fp)
40001288:	00002706 	br	40001328 <_ZN2NN17getMaxOutputValueEv+0xf0>
		if( layer[n_layer-1].value[i] > maxval) {
4000128c:	e0bfff17 	ldw	r2,-4(fp)
40001290:	10c00217 	ldw	r3,8(r2)
40001294:	e0bfff17 	ldw	r2,-4(fp)
40001298:	10800117 	ldw	r2,4(r2)
4000129c:	10800624 	muli	r2,r2,24
400012a0:	10bffa04 	addi	r2,r2,-24
400012a4:	1885883a 	add	r2,r3,r2
400012a8:	10c00517 	ldw	r3,20(r2)
400012ac:	e0bffe17 	ldw	r2,-8(fp)
400012b0:	1085883a 	add	r2,r2,r2
400012b4:	1885883a 	add	r2,r3,r2
400012b8:	1080000b 	ldhu	r2,0(r2)
400012bc:	10bfffcc 	andi	r2,r2,65535
400012c0:	10a0001c 	xori	r2,r2,32768
400012c4:	10a00004 	addi	r2,r2,-32768
400012c8:	1007feb2 	custom	250,r3,r2,zero
400012cc:	e0bffd17 	ldw	r2,-12(fp)
400012d0:	1885f972 	custom	229,r2,r3,r2
400012d4:	10001126 	beq	r2,zero,4000131c <_ZN2NN17getMaxOutputValueEv+0xe4>
			maxval = layer[n_layer-1].value[i];
400012d8:	e0bfff17 	ldw	r2,-4(fp)
400012dc:	10c00217 	ldw	r3,8(r2)
400012e0:	e0bfff17 	ldw	r2,-4(fp)
400012e4:	10800117 	ldw	r2,4(r2)
400012e8:	10800624 	muli	r2,r2,24
400012ec:	10bffa04 	addi	r2,r2,-24
400012f0:	1885883a 	add	r2,r3,r2
400012f4:	10c00517 	ldw	r3,20(r2)
400012f8:	e0bffe17 	ldw	r2,-8(fp)
400012fc:	1085883a 	add	r2,r2,r2
40001300:	1885883a 	add	r2,r3,r2
40001304:	1080000b 	ldhu	r2,0(r2)
40001308:	10bfffcc 	andi	r2,r2,65535
4000130c:	10a0001c 	xori	r2,r2,32768
40001310:	10a00004 	addi	r2,r2,-32768
40001314:	1005feb2 	custom	250,r2,r2,zero
40001318:	e0bffd15 	stw	r2,-12(fp)
	return maxindex;
}

int NN::getMaxOutputValue() {
	float maxval = layer[n_layer-1].value[0];
	for(int i=1; i<layer[n_layer-1].n_neuron; i++) {
4000131c:	e0bffe17 	ldw	r2,-8(fp)
40001320:	10800044 	addi	r2,r2,1
40001324:	e0bffe15 	stw	r2,-8(fp)
40001328:	e0bfff17 	ldw	r2,-4(fp)
4000132c:	10c00217 	ldw	r3,8(r2)
40001330:	e0bfff17 	ldw	r2,-4(fp)
40001334:	10800117 	ldw	r2,4(r2)
40001338:	10800624 	muli	r2,r2,24
4000133c:	10bffa04 	addi	r2,r2,-24
40001340:	1885883a 	add	r2,r3,r2
40001344:	10800217 	ldw	r2,8(r2)
40001348:	e0fffe17 	ldw	r3,-8(fp)
4000134c:	18bfcf16 	blt	r3,r2,4000128c <__alt_data_end+0xc000128c>
		if( layer[n_layer-1].value[i] > maxval) {
			maxval = layer[n_layer-1].value[i];
		}
	}
	return maxval;
40001350:	e0fffd17 	ldw	r3,-12(fp)
40001354:	1805fe72 	custom	249,r2,r3,zero
}
40001358:	e037883a 	mov	sp,fp
4000135c:	df000017 	ldw	fp,0(sp)
40001360:	dec00104 	addi	sp,sp,4
40001364:	f800283a 	ret

40001368 <_ZN2NN5printEv>:

void NN::print() {
40001368:	defffc04 	addi	sp,sp,-16
4000136c:	dfc00315 	stw	ra,12(sp)
40001370:	df000215 	stw	fp,8(sp)
40001374:	df000204 	addi	fp,sp,8
40001378:	e13fff15 	stw	r4,-4(fp)
	for (int i=0; i<n_layer; i++) {
4000137c:	e03ffe15 	stw	zero,-8(fp)
40001380:	00000e06 	br	400013bc <_ZN2NN5printEv+0x54>
		printf("Layer : %i\r\n",i);
40001384:	01100074 	movhi	r4,16385
40001388:	2112b604 	addi	r4,r4,19160
4000138c:	e17ffe17 	ldw	r5,-8(fp)
40001390:	00088500 	call	40008850 <printf>

		layer[i].print();
40001394:	e0bfff17 	ldw	r2,-4(fp)
40001398:	10c00217 	ldw	r3,8(r2)
4000139c:	e0bffe17 	ldw	r2,-8(fp)
400013a0:	10800624 	muli	r2,r2,24
400013a4:	1885883a 	add	r2,r3,r2
400013a8:	1009883a 	mov	r4,r2
400013ac:	0001d740 	call	40001d74 <_ZN7NNLayer5printEv>
	}
	return maxval;
}

void NN::print() {
	for (int i=0; i<n_layer; i++) {
400013b0:	e0bffe17 	ldw	r2,-8(fp)
400013b4:	10800044 	addi	r2,r2,1
400013b8:	e0bffe15 	stw	r2,-8(fp)
400013bc:	e0bfff17 	ldw	r2,-4(fp)
400013c0:	10800117 	ldw	r2,4(r2)
400013c4:	e0fffe17 	ldw	r3,-8(fp)
400013c8:	18bfee16 	blt	r3,r2,40001384 <__alt_data_end+0xc0001384>
		printf("Layer : %i\r\n",i);

		layer[i].print();
	}
}
400013cc:	e037883a 	mov	sp,fp
400013d0:	dfc00117 	ldw	ra,4(sp)
400013d4:	df000017 	ldw	fp,0(sp)
400013d8:	dec00204 	addi	sp,sp,8
400013dc:	f800283a 	ret

400013e0 <_ZN2NN12printOutputsEv>:

void NN::printOutputs() {
400013e0:	defffc04 	addi	sp,sp,-16
400013e4:	dfc00315 	stw	ra,12(sp)
400013e8:	df000215 	stw	fp,8(sp)
400013ec:	df000204 	addi	fp,sp,8
400013f0:	e13fff15 	stw	r4,-4(fp)

	for(int i=0; i<layer[n_layer-1].n_neuron; i++) {
400013f4:	e03ffe15 	stw	zero,-8(fp)
400013f8:	00001706 	br	40001458 <_ZN2NN12printOutputsEv+0x78>
		printf("Neuron[%i]: %2.2f \r\n",i, layer[n_layer-1].value[i]);
400013fc:	e0bfff17 	ldw	r2,-4(fp)
40001400:	10c00217 	ldw	r3,8(r2)
40001404:	e0bfff17 	ldw	r2,-4(fp)
40001408:	10800117 	ldw	r2,4(r2)
4000140c:	10800624 	muli	r2,r2,24
40001410:	10bffa04 	addi	r2,r2,-24
40001414:	1885883a 	add	r2,r3,r2
40001418:	10c00517 	ldw	r3,20(r2)
4000141c:	e0bffe17 	ldw	r2,-8(fp)
40001420:	1085883a 	add	r2,r2,r2
40001424:	1885883a 	add	r2,r3,r2
40001428:	1080000b 	ldhu	r2,0(r2)
4000142c:	10bfffcc 	andi	r2,r2,65535
40001430:	10a0001c 	xori	r2,r2,32768
40001434:	10a00004 	addi	r2,r2,-32768
40001438:	01100074 	movhi	r4,16385
4000143c:	2112ba04 	addi	r4,r4,19176
40001440:	e17ffe17 	ldw	r5,-8(fp)
40001444:	100d883a 	mov	r6,r2
40001448:	00088500 	call	40008850 <printf>
	}
}

void NN::printOutputs() {

	for(int i=0; i<layer[n_layer-1].n_neuron; i++) {
4000144c:	e0bffe17 	ldw	r2,-8(fp)
40001450:	10800044 	addi	r2,r2,1
40001454:	e0bffe15 	stw	r2,-8(fp)
40001458:	e0bfff17 	ldw	r2,-4(fp)
4000145c:	10c00217 	ldw	r3,8(r2)
40001460:	e0bfff17 	ldw	r2,-4(fp)
40001464:	10800117 	ldw	r2,4(r2)
40001468:	10800624 	muli	r2,r2,24
4000146c:	10bffa04 	addi	r2,r2,-24
40001470:	1885883a 	add	r2,r3,r2
40001474:	10800217 	ldw	r2,8(r2)
40001478:	e0fffe17 	ldw	r3,-8(fp)
4000147c:	18bfdf16 	blt	r3,r2,400013fc <__alt_data_end+0xc00013fc>
		printf("Neuron[%i]: %2.2f \r\n",i, layer[n_layer-1].value[i]);
	}
	printf("\r\n");
40001480:	01100074 	movhi	r4,16385
40001484:	2112c004 	addi	r4,r4,19200
40001488:	00089640 	call	40008964 <puts>
}
4000148c:	e037883a 	mov	sp,fp
40001490:	dfc00117 	ldw	ra,4(sp)
40001494:	df000017 	ldw	fp,0(sp)
40001498:	dec00204 	addi	sp,sp,8
4000149c:	f800283a 	ret

400014a0 <_ZN7NNLayerC1Ev>:
#include "Image.h"


#define MAKE_TERNARY_THRESHOLD 0.3

NNLayer::NNLayer() {
400014a0:	defffe04 	addi	sp,sp,-8
400014a4:	df000115 	stw	fp,4(sp)
400014a8:	df000104 	addi	fp,sp,4
400014ac:	e13fff15 	stw	r4,-4(fp)
400014b0:	e0ffff17 	ldw	r3,-4(fp)
400014b4:	00900074 	movhi	r2,16385
400014b8:	1092d804 	addi	r2,r2,19296
400014bc:	18800015 	stw	r2,0(r3)
	// TODO Auto-generated constructor stub
	n_input = 0;
400014c0:	e0bfff17 	ldw	r2,-4(fp)
400014c4:	10000115 	stw	zero,4(r2)
	n_neuron = 0;
400014c8:	e0bfff17 	ldw	r2,-4(fp)
400014cc:	10000215 	stw	zero,8(r2)
	bias = 0;
400014d0:	e0bfff17 	ldw	r2,-4(fp)
400014d4:	10000315 	stw	zero,12(r2)
	weight = 0;
400014d8:	e0bfff17 	ldw	r2,-4(fp)
400014dc:	10000415 	stw	zero,16(r2)
	value = 0;
400014e0:	e0bfff17 	ldw	r2,-4(fp)
400014e4:	10000515 	stw	zero,20(r2)
}
400014e8:	e037883a 	mov	sp,fp
400014ec:	df000017 	ldw	fp,0(sp)
400014f0:	dec00104 	addi	sp,sp,4
400014f4:	f800283a 	ret

400014f8 <_ZN7NNLayerC1Eii>:

NNLayer::NNLayer(int new_n_input, int new_n_neuron) {
400014f8:	defffb04 	addi	sp,sp,-20
400014fc:	dfc00415 	stw	ra,16(sp)
40001500:	df000315 	stw	fp,12(sp)
40001504:	df000304 	addi	fp,sp,12
40001508:	e13ffd15 	stw	r4,-12(fp)
4000150c:	e17ffe15 	stw	r5,-8(fp)
40001510:	e1bfff15 	stw	r6,-4(fp)
40001514:	e0fffd17 	ldw	r3,-12(fp)
40001518:	00900074 	movhi	r2,16385
4000151c:	1092d804 	addi	r2,r2,19296
40001520:	18800015 	stw	r2,0(r3)
	// TODO Auto-generated constructor stub
	init(new_n_input, new_n_neuron);
40001524:	e13ffd17 	ldw	r4,-12(fp)
40001528:	e17ffe17 	ldw	r5,-8(fp)
4000152c:	e1bfff17 	ldw	r6,-4(fp)
40001530:	00015480 	call	40001548 <_ZN7NNLayer4initEii>
}
40001534:	e037883a 	mov	sp,fp
40001538:	dfc00117 	ldw	ra,4(sp)
4000153c:	df000017 	ldw	fp,0(sp)
40001540:	dec00204 	addi	sp,sp,8
40001544:	f800283a 	ret

40001548 <_ZN7NNLayer4initEii>:

void NNLayer::init(int new_n_input, int new_n_neuron) {
40001548:	defffb04 	addi	sp,sp,-20
4000154c:	dfc00415 	stw	ra,16(sp)
40001550:	df000315 	stw	fp,12(sp)
40001554:	df000304 	addi	fp,sp,12
40001558:	e13ffd15 	stw	r4,-12(fp)
4000155c:	e17ffe15 	stw	r5,-8(fp)
40001560:	e1bfff15 	stw	r6,-4(fp)
	// TODO Auto-generated constructor stub
	n_input = new_n_input;
40001564:	e0bffd17 	ldw	r2,-12(fp)
40001568:	e0fffe17 	ldw	r3,-8(fp)
4000156c:	10c00115 	stw	r3,4(r2)
	n_neuron = new_n_neuron;
40001570:	e0bffd17 	ldw	r2,-12(fp)
40001574:	e0ffff17 	ldw	r3,-4(fp)
40001578:	10c00215 	stw	r3,8(r2)

	bias = new BYTE[n_neuron];
4000157c:	e0bffd17 	ldw	r2,-12(fp)
40001580:	10800217 	ldw	r2,8(r2)
40001584:	00cfe034 	movhi	r3,16256
40001588:	18800236 	bltu	r3,r2,40001594 <_ZN7NNLayer4initEii+0x4c>
4000158c:	1085883a 	add	r2,r2,r2
40001590:	00000106 	br	40001598 <_ZN7NNLayer4initEii+0x50>
40001594:	00bfffc4 	movi	r2,-1
40001598:	1009883a 	mov	r4,r2
4000159c:	0003b440 	call	40003b44 <_Znaj>
400015a0:	1007883a 	mov	r3,r2
400015a4:	e0bffd17 	ldw	r2,-12(fp)
400015a8:	10c00315 	stw	r3,12(r2)

	weight = new BYTE[n_neuron*n_input];
400015ac:	e0bffd17 	ldw	r2,-12(fp)
400015b0:	10c00217 	ldw	r3,8(r2)
400015b4:	e0bffd17 	ldw	r2,-12(fp)
400015b8:	10800117 	ldw	r2,4(r2)
400015bc:	1885383a 	mul	r2,r3,r2
400015c0:	00cfe034 	movhi	r3,16256
400015c4:	18800236 	bltu	r3,r2,400015d0 <_ZN7NNLayer4initEii+0x88>
400015c8:	1085883a 	add	r2,r2,r2
400015cc:	00000106 	br	400015d4 <_ZN7NNLayer4initEii+0x8c>
400015d0:	00bfffc4 	movi	r2,-1
400015d4:	1009883a 	mov	r4,r2
400015d8:	0003b440 	call	40003b44 <_Znaj>
400015dc:	1007883a 	mov	r3,r2
400015e0:	e0bffd17 	ldw	r2,-12(fp)
400015e4:	10c00415 	stw	r3,16(r2)
	value = new BYTE[n_neuron];
400015e8:	e0bffd17 	ldw	r2,-12(fp)
400015ec:	10800217 	ldw	r2,8(r2)
400015f0:	00cfe034 	movhi	r3,16256
400015f4:	18800236 	bltu	r3,r2,40001600 <_ZN7NNLayer4initEii+0xb8>
400015f8:	1085883a 	add	r2,r2,r2
400015fc:	00000106 	br	40001604 <_ZN7NNLayer4initEii+0xbc>
40001600:	00bfffc4 	movi	r2,-1
40001604:	1009883a 	mov	r4,r2
40001608:	0003b440 	call	40003b44 <_Znaj>
4000160c:	1007883a 	mov	r3,r2
40001610:	e0bffd17 	ldw	r2,-12(fp)
40001614:	10c00515 	stw	r3,20(r2)
}
40001618:	e037883a 	mov	sp,fp
4000161c:	dfc00117 	ldw	ra,4(sp)
40001620:	df000017 	ldw	fp,0(sp)
40001624:	dec00204 	addi	sp,sp,8
40001628:	f800283a 	ret

4000162c <_Z6MYrandv>:

int MYrand() {
4000162c:	deffff04 	addi	sp,sp,-4
40001630:	df000015 	stw	fp,0(sp)
40001634:	d839883a 	mov	fp,sp
	static unsigned long seed=0x1234567;
	seed = seed * 3196829161;
40001638:	d0e00517 	ldw	r3,-32748(gp)
4000163c:	00afa334 	movhi	r2,48780
40001640:	10af7a44 	addi	r2,r2,-16919
40001644:	1885383a 	mul	r2,r3,r2
40001648:	d0a00515 	stw	r2,-32748(gp)
	return seed >> 1;
4000164c:	d0a00517 	ldw	r2,-32748(gp)
40001650:	1004d07a 	srli	r2,r2,1
}
40001654:	e037883a 	mov	sp,fp
40001658:	df000017 	ldw	fp,0(sp)
4000165c:	dec00104 	addi	sp,sp,4
40001660:	f800283a 	ret

40001664 <_ZN7NNLayer15rand_FloatRangeEff>:

float NNLayer::rand_FloatRange(float a, float b) {
40001664:	defffa04 	addi	sp,sp,-24
40001668:	dfc00515 	stw	ra,20(sp)
4000166c:	df000415 	stw	fp,16(sp)
40001670:	dc000315 	stw	r16,12(sp)
40001674:	df000404 	addi	fp,sp,16
40001678:	e13ffc15 	stw	r4,-16(fp)
4000167c:	e17ffd15 	stw	r5,-12(fp)
40001680:	e1bffe15 	stw	r6,-8(fp)
	return ((b-a)*((float)MYrand()/0x7FFFFFFF))+a;
40001684:	e0fffe17 	ldw	r3,-8(fp)
40001688:	e0bffd17 	ldw	r2,-12(fp)
4000168c:	18a1ffb2 	custom	254,r16,r3,r2
40001690:	000162c0 	call	4000162c <_Z6MYrandv>
40001694:	1007feb2 	custom	250,r3,r2,zero
40001698:	0093c034 	movhi	r2,20224
4000169c:	1885fff2 	custom	255,r2,r3,r2
400016a0:	8087ff32 	custom	252,r3,r16,r2
400016a4:	e0bffd17 	ldw	r2,-12(fp)
400016a8:	1885ff72 	custom	253,r2,r3,r2
400016ac:	1007883a 	mov	r3,r2
}
400016b0:	1805883a 	mov	r2,r3
400016b4:	e6ffff04 	addi	sp,fp,-4
400016b8:	dfc00217 	ldw	ra,8(sp)
400016bc:	df000117 	ldw	fp,4(sp)
400016c0:	dc000017 	ldw	r16,0(sp)
400016c4:	dec00304 	addi	sp,sp,12
400016c8:	f800283a 	ret

400016cc <_ZN7NNLayer16makeTernaryExtraEf>:

BYTE NNLayer::makeTernaryExtra(float fvalue){
400016cc:	defffc04 	addi	sp,sp,-16
400016d0:	dfc00315 	stw	ra,12(sp)
400016d4:	df000215 	stw	fp,8(sp)
400016d8:	df000204 	addi	fp,sp,8
400016dc:	e13ffe15 	stw	r4,-8(fp)
400016e0:	e17fff15 	stw	r5,-4(fp)
	if (fvalue >= 0.4) {
400016e4:	e13fff17 	ldw	r4,-4(fp)
400016e8:	00076a40 	call	400076a4 <__extendsfdf2>
400016ec:	100b883a 	mov	r5,r2
400016f0:	180d883a 	mov	r6,r3
400016f4:	2809883a 	mov	r4,r5
400016f8:	300b883a 	mov	r5,r6
400016fc:	01a666b4 	movhi	r6,39322
40001700:	31a66684 	addi	r6,r6,-26214
40001704:	01cff6b4 	movhi	r7,16346
40001708:	39e66644 	addi	r7,r7,-26215
4000170c:	00063980 	call	40006398 <__gedf2>
40001710:	10000216 	blt	r2,zero,4000171c <_ZN7NNLayer16makeTernaryExtraEf+0x50>
		return 1;
40001714:	00800044 	movi	r2,1
40001718:	00000f06 	br	40001758 <_ZN7NNLayer16makeTernaryExtraEf+0x8c>
	} else if(fvalue <=-0.4){
4000171c:	e13fff17 	ldw	r4,-4(fp)
40001720:	00076a40 	call	400076a4 <__extendsfdf2>
40001724:	100b883a 	mov	r5,r2
40001728:	180d883a 	mov	r6,r3
4000172c:	2809883a 	mov	r4,r5
40001730:	300b883a 	mov	r5,r6
40001734:	01a666b4 	movhi	r6,39322
40001738:	31a66684 	addi	r6,r6,-26214
4000173c:	01eff6b4 	movhi	r7,49114
40001740:	39e66644 	addi	r7,r7,-26215
40001744:	00064780 	call	40006478 <__ledf2>
40001748:	00800216 	blt	zero,r2,40001754 <_ZN7NNLayer16makeTernaryExtraEf+0x88>
		return -1;
4000174c:	00bfffc4 	movi	r2,-1
40001750:	00000106 	br	40001758 <_ZN7NNLayer16makeTernaryExtraEf+0x8c>
	} else {
		return 0;
40001754:	0005883a 	mov	r2,zero
	}
}
40001758:	e037883a 	mov	sp,fp
4000175c:	dfc00117 	ldw	ra,4(sp)
40001760:	df000017 	ldw	fp,0(sp)
40001764:	dec00204 	addi	sp,sp,8
40001768:	f800283a 	ret

4000176c <_ZN7NNLayer11random_initEii>:

void NNLayer::random_init(int new_n_input, int new_n_neuron) {
4000176c:	defff604 	addi	sp,sp,-40
40001770:	dfc00915 	stw	ra,36(sp)
40001774:	df000815 	stw	fp,32(sp)
40001778:	dc400715 	stw	r17,28(sp)
4000177c:	dc000615 	stw	r16,24(sp)
40001780:	df000804 	addi	fp,sp,32
40001784:	e13ffb15 	stw	r4,-20(fp)
40001788:	e17ffc15 	stw	r5,-16(fp)
4000178c:	e1bffd15 	stw	r6,-12(fp)
	// TODO Auto-generated constructor stub
	init(new_n_input, new_n_neuron);
40001790:	e13ffb17 	ldw	r4,-20(fp)
40001794:	e17ffc17 	ldw	r5,-16(fp)
40001798:	e1bffd17 	ldw	r6,-12(fp)
4000179c:	00015480 	call	40001548 <_ZN7NNLayer4initEii>

	bias = new BYTE[n_neuron];
400017a0:	e0bffb17 	ldw	r2,-20(fp)
400017a4:	10800217 	ldw	r2,8(r2)
400017a8:	00cfe034 	movhi	r3,16256
400017ac:	18800236 	bltu	r3,r2,400017b8 <_ZN7NNLayer11random_initEii+0x4c>
400017b0:	1085883a 	add	r2,r2,r2
400017b4:	00000106 	br	400017bc <_ZN7NNLayer11random_initEii+0x50>
400017b8:	00bfffc4 	movi	r2,-1
400017bc:	1009883a 	mov	r4,r2
400017c0:	0003b440 	call	40003b44 <_Znaj>
400017c4:	1007883a 	mov	r3,r2
400017c8:	e0bffb17 	ldw	r2,-20(fp)
400017cc:	10c00315 	stw	r3,12(r2)

	BYTE * cur_weight = weight;
400017d0:	e0bffb17 	ldw	r2,-20(fp)
400017d4:	10800417 	ldw	r2,16(r2)
400017d8:	e0bff815 	stw	r2,-32(fp)
	for (int i=0; i<n_neuron; i++) {
400017dc:	e03ff915 	stw	zero,-28(fp)
400017e0:	00004106 	br	400018e8 <_ZN7NNLayer11random_initEii+0x17c>
		bias[i] = makeTernaryExtra(rand_FloatRange(-log2(new_n_input),log2(new_n_input)));
400017e4:	e0bffb17 	ldw	r2,-20(fp)
400017e8:	10c00317 	ldw	r3,12(r2)
400017ec:	e0bff917 	ldw	r2,-28(fp)
400017f0:	1085883a 	add	r2,r2,r2
400017f4:	18a1883a 	add	r16,r3,r2
400017f8:	e13ffc17 	ldw	r4,-16(fp)
400017fc:	00075d40 	call	400075d4 <__floatsidf>
40001800:	100b883a 	mov	r5,r2
40001804:	180d883a 	mov	r6,r3
40001808:	2809883a 	mov	r4,r5
4000180c:	300b883a 	mov	r5,r6
40001810:	00040480 	call	40004048 <log2>
40001814:	100b883a 	mov	r5,r2
40001818:	180d883a 	mov	r6,r3
4000181c:	2809883a 	mov	r4,r5
40001820:	300b883a 	mov	r5,r6
40001824:	00077b40 	call	400077b4 <__truncdfsf2>
40001828:	1007883a 	mov	r3,r2
4000182c:	1823f872 	custom	225,r17,r3,zero
40001830:	e13ffc17 	ldw	r4,-16(fp)
40001834:	00075d40 	call	400075d4 <__floatsidf>
40001838:	100b883a 	mov	r5,r2
4000183c:	180d883a 	mov	r6,r3
40001840:	2809883a 	mov	r4,r5
40001844:	300b883a 	mov	r5,r6
40001848:	00040480 	call	40004048 <log2>
4000184c:	100b883a 	mov	r5,r2
40001850:	180d883a 	mov	r6,r3
40001854:	2809883a 	mov	r4,r5
40001858:	300b883a 	mov	r5,r6
4000185c:	00077b40 	call	400077b4 <__truncdfsf2>
40001860:	1007883a 	mov	r3,r2
40001864:	e13ffb17 	ldw	r4,-20(fp)
40001868:	880b883a 	mov	r5,r17
4000186c:	180d883a 	mov	r6,r3
40001870:	00016640 	call	40001664 <_ZN7NNLayer15rand_FloatRangeEff>
40001874:	1007883a 	mov	r3,r2
40001878:	e13ffb17 	ldw	r4,-20(fp)
4000187c:	180b883a 	mov	r5,r3
40001880:	00016cc0 	call	400016cc <_ZN7NNLayer16makeTernaryExtraEf>
40001884:	8080000d 	sth	r2,0(r16)
		for (int j=0; j<n_input; j++) {
40001888:	e03ffa15 	stw	zero,-24(fp)
4000188c:	00000f06 	br	400018cc <_ZN7NNLayer11random_initEii+0x160>
			*(cur_weight++) = makeTernaryExtra(rand_FloatRange(-1,1));
40001890:	e43ff817 	ldw	r16,-32(fp)
40001894:	80800084 	addi	r2,r16,2
40001898:	e0bff815 	stw	r2,-32(fp)
4000189c:	e13ffb17 	ldw	r4,-20(fp)
400018a0:	016fe034 	movhi	r5,49024
400018a4:	018fe034 	movhi	r6,16256
400018a8:	00016640 	call	40001664 <_ZN7NNLayer15rand_FloatRangeEff>
400018ac:	1007883a 	mov	r3,r2
400018b0:	e13ffb17 	ldw	r4,-20(fp)
400018b4:	180b883a 	mov	r5,r3
400018b8:	00016cc0 	call	400016cc <_ZN7NNLayer16makeTernaryExtraEf>
400018bc:	8080000d 	sth	r2,0(r16)
	bias = new BYTE[n_neuron];

	BYTE * cur_weight = weight;
	for (int i=0; i<n_neuron; i++) {
		bias[i] = makeTernaryExtra(rand_FloatRange(-log2(new_n_input),log2(new_n_input)));
		for (int j=0; j<n_input; j++) {
400018c0:	e0bffa17 	ldw	r2,-24(fp)
400018c4:	10800044 	addi	r2,r2,1
400018c8:	e0bffa15 	stw	r2,-24(fp)
400018cc:	e0bffb17 	ldw	r2,-20(fp)
400018d0:	10800117 	ldw	r2,4(r2)
400018d4:	e0fffa17 	ldw	r3,-24(fp)
400018d8:	18bfed16 	blt	r3,r2,40001890 <__alt_data_end+0xc0001890>
	init(new_n_input, new_n_neuron);

	bias = new BYTE[n_neuron];

	BYTE * cur_weight = weight;
	for (int i=0; i<n_neuron; i++) {
400018dc:	e0bff917 	ldw	r2,-28(fp)
400018e0:	10800044 	addi	r2,r2,1
400018e4:	e0bff915 	stw	r2,-28(fp)
400018e8:	e0bffb17 	ldw	r2,-20(fp)
400018ec:	10800217 	ldw	r2,8(r2)
400018f0:	e0fff917 	ldw	r3,-28(fp)
400018f4:	18bfbb16 	blt	r3,r2,400017e4 <__alt_data_end+0xc00017e4>
		bias[i] = makeTernaryExtra(rand_FloatRange(-log2(new_n_input),log2(new_n_input)));
		for (int j=0; j<n_input; j++) {
			*(cur_weight++) = makeTernaryExtra(rand_FloatRange(-1,1));
		}
	}
}
400018f8:	e6fffe04 	addi	sp,fp,-8
400018fc:	dfc00317 	ldw	ra,12(sp)
40001900:	df000217 	ldw	fp,8(sp)
40001904:	dc400117 	ldw	r17,4(sp)
40001908:	dc000017 	ldw	r16,0(sp)
4000190c:	dec00404 	addi	sp,sp,16
40001910:	f800283a 	ret

40001914 <_Z13vector_weighti>:

int vector_weight(int x) {
40001914:	defffd04 	addi	sp,sp,-12
40001918:	df000215 	stw	fp,8(sp)
4000191c:	df000204 	addi	fp,sp,8
40001920:	e13fff15 	stw	r4,-4(fp)
	int result = 0;
40001924:	e03ffe15 	stw	zero,-8(fp)
	while (x != 0) {
40001928:	00000906 	br	40001950 <_Z13vector_weighti+0x3c>
		if (x & 1) result++;
4000192c:	e0bfff17 	ldw	r2,-4(fp)
40001930:	1080004c 	andi	r2,r2,1
40001934:	10000326 	beq	r2,zero,40001944 <_Z13vector_weighti+0x30>
40001938:	e0bffe17 	ldw	r2,-8(fp)
4000193c:	10800044 	addi	r2,r2,1
40001940:	e0bffe15 	stw	r2,-8(fp)
		x >>=1;
40001944:	e0bfff17 	ldw	r2,-4(fp)
40001948:	1005d07a 	srai	r2,r2,1
4000194c:	e0bfff15 	stw	r2,-4(fp)
	}
}

int vector_weight(int x) {
	int result = 0;
	while (x != 0) {
40001950:	e0bfff17 	ldw	r2,-4(fp)
40001954:	103ff51e 	bne	r2,zero,4000192c <__alt_data_end+0xc000192c>
		if (x & 1) result++;
		x >>=1;
	}
	return result;
40001958:	e0bffe17 	ldw	r2,-8(fp)
}
4000195c:	e037883a 	mov	sp,fp
40001960:	df000017 	ldw	fp,0(sp)
40001964:	dec00104 	addi	sp,sp,4
40001968:	f800283a 	ret

4000196c <_ZN7NNLayer12make_ternaryEv>:

void NNLayer::make_ternary() {
4000196c:	defff904 	addi	sp,sp,-28
40001970:	dfc00615 	stw	ra,24(sp)
40001974:	df000515 	stw	fp,20(sp)
40001978:	dc000415 	stw	r16,16(sp)
4000197c:	df000504 	addi	fp,sp,20
40001980:	e13ffe15 	stw	r4,-8(fp)
	BYTE * cur_weight = weight;
40001984:	e0bffe17 	ldw	r2,-8(fp)
40001988:	10800417 	ldw	r2,16(r2)
4000198c:	e0bffb15 	stw	r2,-20(fp)
	for (int i=0; i<n_neuron; i++) {
40001990:	e03ffc15 	stw	zero,-16(fp)
40001994:	00005106 	br	40001adc <_ZN7NNLayer12make_ternaryEv+0x170>
		bias[i] = trunc(bias[i]);
40001998:	e0bffe17 	ldw	r2,-8(fp)
4000199c:	10c00317 	ldw	r3,12(r2)
400019a0:	e0bffc17 	ldw	r2,-16(fp)
400019a4:	1085883a 	add	r2,r2,r2
400019a8:	18a1883a 	add	r16,r3,r2
400019ac:	e0bffe17 	ldw	r2,-8(fp)
400019b0:	10c00317 	ldw	r3,12(r2)
400019b4:	e0bffc17 	ldw	r2,-16(fp)
400019b8:	1085883a 	add	r2,r2,r2
400019bc:	1885883a 	add	r2,r3,r2
400019c0:	1080000b 	ldhu	r2,0(r2)
400019c4:	10bfffcc 	andi	r2,r2,65535
400019c8:	10a0001c 	xori	r2,r2,32768
400019cc:	10a00004 	addi	r2,r2,-32768
400019d0:	1009883a 	mov	r4,r2
400019d4:	00075d40 	call	400075d4 <__floatsidf>
400019d8:	100b883a 	mov	r5,r2
400019dc:	180d883a 	mov	r6,r3
400019e0:	2809883a 	mov	r4,r5
400019e4:	300b883a 	mov	r5,r6
400019e8:	000754c0 	call	4000754c <__fixdfsi>
400019ec:	8080000d 	sth	r2,0(r16)
		for (int j=0; j<n_input; j++) {
400019f0:	e03ffd15 	stw	zero,-12(fp)
400019f4:	00003206 	br	40001ac0 <_ZN7NNLayer12make_ternaryEv+0x154>
			if (*cur_weight>MAKE_TERNARY_THRESHOLD) *cur_weight = 1;
400019f8:	e0bffb17 	ldw	r2,-20(fp)
400019fc:	1080000b 	ldhu	r2,0(r2)
40001a00:	10bfffcc 	andi	r2,r2,65535
40001a04:	10a0001c 	xori	r2,r2,32768
40001a08:	10a00004 	addi	r2,r2,-32768
40001a0c:	1009883a 	mov	r4,r2
40001a10:	00075d40 	call	400075d4 <__floatsidf>
40001a14:	100b883a 	mov	r5,r2
40001a18:	180d883a 	mov	r6,r3
40001a1c:	2809883a 	mov	r4,r5
40001a20:	300b883a 	mov	r5,r6
40001a24:	018cccf4 	movhi	r6,13107
40001a28:	318cccc4 	addi	r6,r6,13107
40001a2c:	01cff4f4 	movhi	r7,16339
40001a30:	39ccccc4 	addi	r7,r7,13107
40001a34:	00063980 	call	40006398 <__gedf2>
40001a38:	0080040e 	bge	zero,r2,40001a4c <_ZN7NNLayer12make_ternaryEv+0xe0>
40001a3c:	e0bffb17 	ldw	r2,-20(fp)
40001a40:	00c00044 	movi	r3,1
40001a44:	10c0000d 	sth	r3,0(r2)
40001a48:	00001706 	br	40001aa8 <_ZN7NNLayer12make_ternaryEv+0x13c>
			else if (*cur_weight<-MAKE_TERNARY_THRESHOLD) *cur_weight = -1;
40001a4c:	e0bffb17 	ldw	r2,-20(fp)
40001a50:	1080000b 	ldhu	r2,0(r2)
40001a54:	10bfffcc 	andi	r2,r2,65535
40001a58:	10a0001c 	xori	r2,r2,32768
40001a5c:	10a00004 	addi	r2,r2,-32768
40001a60:	1009883a 	mov	r4,r2
40001a64:	00075d40 	call	400075d4 <__floatsidf>
40001a68:	100b883a 	mov	r5,r2
40001a6c:	180d883a 	mov	r6,r3
40001a70:	2809883a 	mov	r4,r5
40001a74:	300b883a 	mov	r5,r6
40001a78:	018cccf4 	movhi	r6,13107
40001a7c:	318cccc4 	addi	r6,r6,13107
40001a80:	01eff4f4 	movhi	r7,49107
40001a84:	39ccccc4 	addi	r7,r7,13107
40001a88:	00064780 	call	40006478 <__ledf2>
40001a8c:	1000040e 	bge	r2,zero,40001aa0 <_ZN7NNLayer12make_ternaryEv+0x134>
40001a90:	e0bffb17 	ldw	r2,-20(fp)
40001a94:	00ffffc4 	movi	r3,-1
40001a98:	10c0000d 	sth	r3,0(r2)
40001a9c:	00000206 	br	40001aa8 <_ZN7NNLayer12make_ternaryEv+0x13c>
			else *cur_weight = 0;
40001aa0:	e0bffb17 	ldw	r2,-20(fp)
40001aa4:	1000000d 	sth	zero,0(r2)
			cur_weight++;
40001aa8:	e0bffb17 	ldw	r2,-20(fp)
40001aac:	10800084 	addi	r2,r2,2
40001ab0:	e0bffb15 	stw	r2,-20(fp)

void NNLayer::make_ternary() {
	BYTE * cur_weight = weight;
	for (int i=0; i<n_neuron; i++) {
		bias[i] = trunc(bias[i]);
		for (int j=0; j<n_input; j++) {
40001ab4:	e0bffd17 	ldw	r2,-12(fp)
40001ab8:	10800044 	addi	r2,r2,1
40001abc:	e0bffd15 	stw	r2,-12(fp)
40001ac0:	e0bffe17 	ldw	r2,-8(fp)
40001ac4:	10800117 	ldw	r2,4(r2)
40001ac8:	e0fffd17 	ldw	r3,-12(fp)
40001acc:	18bfca16 	blt	r3,r2,400019f8 <__alt_data_end+0xc00019f8>
	return result;
}

void NNLayer::make_ternary() {
	BYTE * cur_weight = weight;
	for (int i=0; i<n_neuron; i++) {
40001ad0:	e0bffc17 	ldw	r2,-16(fp)
40001ad4:	10800044 	addi	r2,r2,1
40001ad8:	e0bffc15 	stw	r2,-16(fp)
40001adc:	e0bffe17 	ldw	r2,-8(fp)
40001ae0:	10800217 	ldw	r2,8(r2)
40001ae4:	e0fffc17 	ldw	r3,-16(fp)
40001ae8:	18bfab16 	blt	r3,r2,40001998 <__alt_data_end+0xc0001998>
			else if (*cur_weight<-MAKE_TERNARY_THRESHOLD) *cur_weight = -1;
			else *cur_weight = 0;
			cur_weight++;
		}
	}
}
40001aec:	e6ffff04 	addi	sp,fp,-4
40001af0:	dfc00217 	ldw	ra,8(sp)
40001af4:	df000117 	ldw	fp,4(sp)
40001af8:	dc000017 	ldw	r16,0(sp)
40001afc:	dec00304 	addi	sp,sp,12
40001b00:	f800283a 	ret

40001b04 <_ZN7NNLayerD1Ev>:

NNLayer::~NNLayer() {
40001b04:	defffd04 	addi	sp,sp,-12
40001b08:	dfc00215 	stw	ra,8(sp)
40001b0c:	df000115 	stw	fp,4(sp)
40001b10:	df000104 	addi	fp,sp,4
40001b14:	e13fff15 	stw	r4,-4(fp)
40001b18:	e0ffff17 	ldw	r3,-4(fp)
40001b1c:	00900074 	movhi	r2,16385
40001b20:	1092d804 	addi	r2,r2,19296
40001b24:	18800015 	stw	r2,0(r3)
	// TODO Auto-generated destructor stub
}
40001b28:	0005883a 	mov	r2,zero
40001b2c:	10000226 	beq	r2,zero,40001b38 <_ZN7NNLayerD1Ev+0x34>
40001b30:	e13fff17 	ldw	r4,-4(fp)
40001b34:	00034e80 	call	400034e8 <_ZdlPv>
40001b38:	e037883a 	mov	sp,fp
40001b3c:	dfc00117 	ldw	ra,4(sp)
40001b40:	df000017 	ldw	fp,0(sp)
40001b44:	dec00204 	addi	sp,sp,8
40001b48:	f800283a 	ret

40001b4c <_ZN7NNLayerD0Ev>:
			cur_weight++;
		}
	}
}

NNLayer::~NNLayer() {
40001b4c:	defffd04 	addi	sp,sp,-12
40001b50:	dfc00215 	stw	ra,8(sp)
40001b54:	df000115 	stw	fp,4(sp)
40001b58:	df000104 	addi	fp,sp,4
40001b5c:	e13fff15 	stw	r4,-4(fp)
	// TODO Auto-generated destructor stub
}
40001b60:	e13fff17 	ldw	r4,-4(fp)
40001b64:	0001b040 	call	40001b04 <_ZN7NNLayerD1Ev>
40001b68:	e13fff17 	ldw	r4,-4(fp)
40001b6c:	00034e80 	call	400034e8 <_ZdlPv>
40001b70:	e037883a 	mov	sp,fp
40001b74:	dfc00117 	ldw	ra,4(sp)
40001b78:	df000017 	ldw	fp,0(sp)
40001b7c:	dec00204 	addi	sp,sp,8
40001b80:	f800283a 	ret

40001b84 <_ZN7NNLayer3fctEs>:

//Edit this function for ternary logic
BYTE NNLayer::fct(BYTE x) {
40001b84:	defffd04 	addi	sp,sp,-12
40001b88:	df000215 	stw	fp,8(sp)
40001b8c:	df000204 	addi	fp,sp,8
40001b90:	e13ffe15 	stw	r4,-8(fp)
40001b94:	2805883a 	mov	r2,r5
40001b98:	e0bfff0d 	sth	r2,-4(fp)
//	return 1.0/(1.0+exp(-x));
	if (x>0) return 1;
40001b9c:	e0bfff0f 	ldh	r2,-4(fp)
40001ba0:	0080020e 	bge	zero,r2,40001bac <_ZN7NNLayer3fctEs+0x28>
40001ba4:	00800044 	movi	r2,1
40001ba8:	00000106 	br	40001bb0 <_ZN7NNLayer3fctEs+0x2c>
	else return 0;
40001bac:	0005883a 	mov	r2,zero
}
40001bb0:	e037883a 	mov	sp,fp
40001bb4:	df000017 	ldw	fp,0(sp)
40001bb8:	dec00104 	addi	sp,sp,4
40001bbc:	f800283a 	ret

40001bc0 <_ZN7NNLayer9propagateEPs>:

BYTE * NNLayer::propagate(BYTE * source) {
40001bc0:	defff704 	addi	sp,sp,-36
40001bc4:	dfc00815 	stw	ra,32(sp)
40001bc8:	df000715 	stw	fp,28(sp)
40001bcc:	dc000615 	stw	r16,24(sp)
40001bd0:	df000704 	addi	fp,sp,28
40001bd4:	e13ffd15 	stw	r4,-12(fp)
40001bd8:	e17ffe15 	stw	r5,-8(fp)
	// TODO Auto-generated constructor stub
	BYTE * cur_weight = weight;
40001bdc:	e0bffd17 	ldw	r2,-12(fp)
40001be0:	10800417 	ldw	r2,16(r2)
40001be4:	e0bff915 	stw	r2,-28(fp)

	for (int i=0; i<n_neuron; i++) {
40001be8:	e03ffa15 	stw	zero,-24(fp)
40001bec:	00003106 	br	40001cb4 <_ZN7NNLayer9propagateEPs+0xf4>
		BYTE acc = bias[i];
40001bf0:	e0bffd17 	ldw	r2,-12(fp)
40001bf4:	10c00317 	ldw	r3,12(r2)
40001bf8:	e0bffa17 	ldw	r2,-24(fp)
40001bfc:	1085883a 	add	r2,r2,r2
40001c00:	1885883a 	add	r2,r3,r2
40001c04:	1080000b 	ldhu	r2,0(r2)
40001c08:	e0bffb0d 	sth	r2,-20(fp)

		for (int j=0; j<n_input; j++) {
40001c0c:	e03ffc15 	stw	zero,-16(fp)
40001c10:	00001706 	br	40001c70 <_ZN7NNLayer9propagateEPs+0xb0>
			acc += *(cur_weight++) * source[j];
40001c14:	e0bff917 	ldw	r2,-28(fp)
40001c18:	10c00084 	addi	r3,r2,2
40001c1c:	e0fff915 	stw	r3,-28(fp)
40001c20:	1080000b 	ldhu	r2,0(r2)
40001c24:	10ffffcc 	andi	r3,r2,65535
40001c28:	18e0001c 	xori	r3,r3,32768
40001c2c:	18e00004 	addi	r3,r3,-32768
40001c30:	e0bffc17 	ldw	r2,-16(fp)
40001c34:	1085883a 	add	r2,r2,r2
40001c38:	1009883a 	mov	r4,r2
40001c3c:	e0bffe17 	ldw	r2,-8(fp)
40001c40:	1105883a 	add	r2,r2,r4
40001c44:	1080000b 	ldhu	r2,0(r2)
40001c48:	10bfffcc 	andi	r2,r2,65535
40001c4c:	10a0001c 	xori	r2,r2,32768
40001c50:	10a00004 	addi	r2,r2,-32768
40001c54:	1885383a 	mul	r2,r3,r2
40001c58:	e0fffb0f 	ldh	r3,-20(fp)
40001c5c:	1885883a 	add	r2,r3,r2
40001c60:	e0bffb0d 	sth	r2,-20(fp)
	BYTE * cur_weight = weight;

	for (int i=0; i<n_neuron; i++) {
		BYTE acc = bias[i];

		for (int j=0; j<n_input; j++) {
40001c64:	e0bffc17 	ldw	r2,-16(fp)
40001c68:	10800044 	addi	r2,r2,1
40001c6c:	e0bffc15 	stw	r2,-16(fp)
40001c70:	e0bffd17 	ldw	r2,-12(fp)
40001c74:	10800117 	ldw	r2,4(r2)
40001c78:	e0fffc17 	ldw	r3,-16(fp)
40001c7c:	18bfe516 	blt	r3,r2,40001c14 <__alt_data_end+0xc0001c14>
			acc += *(cur_weight++) * source[j];
		}
		value[i] = fct(acc); //Binary result
40001c80:	e0bffd17 	ldw	r2,-12(fp)
40001c84:	10c00517 	ldw	r3,20(r2)
40001c88:	e0bffa17 	ldw	r2,-24(fp)
40001c8c:	1085883a 	add	r2,r2,r2
40001c90:	18a1883a 	add	r16,r3,r2
40001c94:	e0bffb0f 	ldh	r2,-20(fp)
40001c98:	e13ffd17 	ldw	r4,-12(fp)
40001c9c:	100b883a 	mov	r5,r2
40001ca0:	0001b840 	call	40001b84 <_ZN7NNLayer3fctEs>
40001ca4:	8080000d 	sth	r2,0(r16)

BYTE * NNLayer::propagate(BYTE * source) {
	// TODO Auto-generated constructor stub
	BYTE * cur_weight = weight;

	for (int i=0; i<n_neuron; i++) {
40001ca8:	e0bffa17 	ldw	r2,-24(fp)
40001cac:	10800044 	addi	r2,r2,1
40001cb0:	e0bffa15 	stw	r2,-24(fp)
40001cb4:	e0bffd17 	ldw	r2,-12(fp)
40001cb8:	10800217 	ldw	r2,8(r2)
40001cbc:	e0fffa17 	ldw	r3,-24(fp)
40001cc0:	18bfcb16 	blt	r3,r2,40001bf0 <__alt_data_end+0xc0001bf0>
		for (int j=0; j<n_input; j++) {
			acc += *(cur_weight++) * source[j];
		}
		value[i] = fct(acc); //Binary result
	}
	return value;
40001cc4:	e0bffd17 	ldw	r2,-12(fp)
40001cc8:	10800517 	ldw	r2,20(r2)
}
40001ccc:	e6ffff04 	addi	sp,fp,-4
40001cd0:	dfc00217 	ldw	ra,8(sp)
40001cd4:	df000117 	ldw	fp,4(sp)
40001cd8:	dc000017 	ldw	r16,0(sp)
40001cdc:	dec00304 	addi	sp,sp,12
40001ce0:	f800283a 	ret

40001ce4 <_ZN7NNLayer16print_activationEv>:

void NNLayer::print_activation() {
40001ce4:	defffc04 	addi	sp,sp,-16
40001ce8:	dfc00315 	stw	ra,12(sp)
40001cec:	df000215 	stw	fp,8(sp)
40001cf0:	df000204 	addi	fp,sp,8
40001cf4:	e13fff15 	stw	r4,-4(fp)
	printf("---------------\n");
40001cf8:	01100074 	movhi	r4,16385
40001cfc:	2112c504 	addi	r4,r4,19220
40001d00:	00089640 	call	40008964 <puts>
	for (int i=0; i<n_neuron; i++) {
40001d04:	e03ffe15 	stw	zero,-8(fp)
40001d08:	00001106 	br	40001d50 <_ZN7NNLayer16print_activationEv+0x6c>
		printf("%i, %i\n", i, (int)value[i]);
40001d0c:	e0bfff17 	ldw	r2,-4(fp)
40001d10:	10c00517 	ldw	r3,20(r2)
40001d14:	e0bffe17 	ldw	r2,-8(fp)
40001d18:	1085883a 	add	r2,r2,r2
40001d1c:	1885883a 	add	r2,r3,r2
40001d20:	1080000b 	ldhu	r2,0(r2)
40001d24:	10bfffcc 	andi	r2,r2,65535
40001d28:	10a0001c 	xori	r2,r2,32768
40001d2c:	10a00004 	addi	r2,r2,-32768
40001d30:	01100074 	movhi	r4,16385
40001d34:	2112c904 	addi	r4,r4,19236
40001d38:	e17ffe17 	ldw	r5,-8(fp)
40001d3c:	100d883a 	mov	r6,r2
40001d40:	00088500 	call	40008850 <printf>
	return value;
}

void NNLayer::print_activation() {
	printf("---------------\n");
	for (int i=0; i<n_neuron; i++) {
40001d44:	e0bffe17 	ldw	r2,-8(fp)
40001d48:	10800044 	addi	r2,r2,1
40001d4c:	e0bffe15 	stw	r2,-8(fp)
40001d50:	e0bfff17 	ldw	r2,-4(fp)
40001d54:	10800217 	ldw	r2,8(r2)
40001d58:	e0fffe17 	ldw	r3,-8(fp)
40001d5c:	18bfeb16 	blt	r3,r2,40001d0c <__alt_data_end+0xc0001d0c>
		printf("%i, %i\n", i, (int)value[i]);
	}
}
40001d60:	e037883a 	mov	sp,fp
40001d64:	dfc00117 	ldw	ra,4(sp)
40001d68:	df000017 	ldw	fp,0(sp)
40001d6c:	dec00204 	addi	sp,sp,8
40001d70:	f800283a 	ret

40001d74 <_ZN7NNLayer5printEv>:

void NNLayer::print() {
40001d74:	defffa04 	addi	sp,sp,-24
40001d78:	dfc00515 	stw	ra,20(sp)
40001d7c:	df000415 	stw	fp,16(sp)
40001d80:	df000404 	addi	fp,sp,16
40001d84:	e13fff15 	stw	r4,-4(fp)
	// TODO Auto-generated constructor stub

	BYTE * cur_weight = weight;
40001d88:	e0bfff17 	ldw	r2,-4(fp)
40001d8c:	10800417 	ldw	r2,16(r2)
40001d90:	e0bffc15 	stw	r2,-16(fp)

	for (int i=0; i<n_neuron; i++) {
40001d94:	e03ffd15 	stw	zero,-12(fp)
40001d98:	00004106 	br	40001ea0 <_ZN7NNLayer5printEv+0x12c>
		printf("Neuron %i: %f, {", i+1, bias[i]);
40001d9c:	e0bffd17 	ldw	r2,-12(fp)
40001da0:	11400044 	addi	r5,r2,1
40001da4:	e0bfff17 	ldw	r2,-4(fp)
40001da8:	10c00317 	ldw	r3,12(r2)
40001dac:	e0bffd17 	ldw	r2,-12(fp)
40001db0:	1085883a 	add	r2,r2,r2
40001db4:	1885883a 	add	r2,r3,r2
40001db8:	1080000b 	ldhu	r2,0(r2)
40001dbc:	10bfffcc 	andi	r2,r2,65535
40001dc0:	10a0001c 	xori	r2,r2,32768
40001dc4:	10a00004 	addi	r2,r2,-32768
40001dc8:	01100074 	movhi	r4,16385
40001dcc:	2112cb04 	addi	r4,r4,19244
40001dd0:	100d883a 	mov	r6,r2
40001dd4:	00088500 	call	40008850 <printf>
		for (int j=0; j<n_input; j++) {
40001dd8:	e03ffe15 	stw	zero,-8(fp)
40001ddc:	00001c06 	br	40001e50 <_ZN7NNLayer5printEv+0xdc>
			if (j!=0) printf(", %2.2f", *(cur_weight++));
40001de0:	e0bffe17 	ldw	r2,-8(fp)
40001de4:	10000c26 	beq	r2,zero,40001e18 <_ZN7NNLayer5printEv+0xa4>
40001de8:	e0bffc17 	ldw	r2,-16(fp)
40001dec:	10c00084 	addi	r3,r2,2
40001df0:	e0fffc15 	stw	r3,-16(fp)
40001df4:	1080000b 	ldhu	r2,0(r2)
40001df8:	10bfffcc 	andi	r2,r2,65535
40001dfc:	10a0001c 	xori	r2,r2,32768
40001e00:	10a00004 	addi	r2,r2,-32768
40001e04:	01100074 	movhi	r4,16385
40001e08:	2112d004 	addi	r4,r4,19264
40001e0c:	100b883a 	mov	r5,r2
40001e10:	00088500 	call	40008850 <printf>
40001e14:	00000b06 	br	40001e44 <_ZN7NNLayer5printEv+0xd0>
			else printf("%2.2f", *(cur_weight++));
40001e18:	e0bffc17 	ldw	r2,-16(fp)
40001e1c:	10c00084 	addi	r3,r2,2
40001e20:	e0fffc15 	stw	r3,-16(fp)
40001e24:	1080000b 	ldhu	r2,0(r2)
40001e28:	10bfffcc 	andi	r2,r2,65535
40001e2c:	10a0001c 	xori	r2,r2,32768
40001e30:	10a00004 	addi	r2,r2,-32768
40001e34:	01100074 	movhi	r4,16385
40001e38:	2112d204 	addi	r4,r4,19272
40001e3c:	100b883a 	mov	r5,r2
40001e40:	00088500 	call	40008850 <printf>

	BYTE * cur_weight = weight;

	for (int i=0; i<n_neuron; i++) {
		printf("Neuron %i: %f, {", i+1, bias[i]);
		for (int j=0; j<n_input; j++) {
40001e44:	e0bffe17 	ldw	r2,-8(fp)
40001e48:	10800044 	addi	r2,r2,1
40001e4c:	e0bffe15 	stw	r2,-8(fp)
40001e50:	e0bfff17 	ldw	r2,-4(fp)
40001e54:	10800117 	ldw	r2,4(r2)
40001e58:	e0fffe17 	ldw	r3,-8(fp)
40001e5c:	18bfe016 	blt	r3,r2,40001de0 <__alt_data_end+0xc0001de0>
			if (j!=0) printf(", %2.2f", *(cur_weight++));
			else printf("%2.2f", *(cur_weight++));
		}
		printf("}, %f\r\n",value[i]);
40001e60:	e0bfff17 	ldw	r2,-4(fp)
40001e64:	10c00517 	ldw	r3,20(r2)
40001e68:	e0bffd17 	ldw	r2,-12(fp)
40001e6c:	1085883a 	add	r2,r2,r2
40001e70:	1885883a 	add	r2,r3,r2
40001e74:	1080000b 	ldhu	r2,0(r2)
40001e78:	10bfffcc 	andi	r2,r2,65535
40001e7c:	10a0001c 	xori	r2,r2,32768
40001e80:	10a00004 	addi	r2,r2,-32768
40001e84:	01100074 	movhi	r4,16385
40001e88:	2112d404 	addi	r4,r4,19280
40001e8c:	100b883a 	mov	r5,r2
40001e90:	00088500 	call	40008850 <printf>
void NNLayer::print() {
	// TODO Auto-generated constructor stub

	BYTE * cur_weight = weight;

	for (int i=0; i<n_neuron; i++) {
40001e94:	e0bffd17 	ldw	r2,-12(fp)
40001e98:	10800044 	addi	r2,r2,1
40001e9c:	e0bffd15 	stw	r2,-12(fp)
40001ea0:	e0bfff17 	ldw	r2,-4(fp)
40001ea4:	10800217 	ldw	r2,8(r2)
40001ea8:	e0fffd17 	ldw	r3,-12(fp)
40001eac:	18bfbb16 	blt	r3,r2,40001d9c <__alt_data_end+0xc0001d9c>
			if (j!=0) printf(", %2.2f", *(cur_weight++));
			else printf("%2.2f", *(cur_weight++));
		}
		printf("}, %f\r\n",value[i]);
	}
}
40001eb0:	e037883a 	mov	sp,fp
40001eb4:	dfc00117 	ldw	ra,4(sp)
40001eb8:	df000017 	ldw	fp,0(sp)
40001ebc:	dec00204 	addi	sp,sp,8
40001ec0:	f800283a 	ret

40001ec4 <_ZN3VGA3clrEv>:
#include "VGA.h"
#include "io.h"

//-------------------------------------------------------------------------
void VGA::clr() {
40001ec4:	defffd04 	addi	sp,sp,-12
40001ec8:	df000215 	stw	fp,8(sp)
40001ecc:	df000204 	addi	fp,sp,8
40001ed0:	e13fff15 	stw	r4,-4(fp)
  int x;
  for (x=0;x<640*480/4;x++) {
40001ed4:	e03ffe15 	stw	zero,-8(fp)
40001ed8:	00000c06 	br	40001f0c <_ZN3VGA3clrEv+0x48>
     IOWR(memory_address, x, 0x0);
40001edc:	e0bffe17 	ldw	r2,-8(fp)
40001ee0:	1085883a 	add	r2,r2,r2
40001ee4:	1085883a 	add	r2,r2,r2
40001ee8:	1007883a 	mov	r3,r2
40001eec:	e0bfff17 	ldw	r2,-4(fp)
40001ef0:	10800117 	ldw	r2,4(r2)
40001ef4:	1885883a 	add	r2,r3,r2
40001ef8:	0007883a 	mov	r3,zero
40001efc:	10c00035 	stwio	r3,0(r2)
#include "io.h"

//-------------------------------------------------------------------------
void VGA::clr() {
  int x;
  for (x=0;x<640*480/4;x++) {
40001f00:	e0bffe17 	ldw	r2,-8(fp)
40001f04:	10800044 	addi	r2,r2,1
40001f08:	e0bffe15 	stw	r2,-8(fp)
40001f0c:	e0fffe17 	ldw	r3,-8(fp)
40001f10:	00800074 	movhi	r2,1
40001f14:	108affc4 	addi	r2,r2,11263
40001f18:	10fff00e 	bge	r2,r3,40001edc <__alt_data_end+0xc0001edc>
     IOWR(memory_address, x, 0x0);
  }
}
40001f1c:	e037883a 	mov	sp,fp
40001f20:	df000017 	ldw	fp,0(sp)
40001f24:	dec00104 	addi	sp,sp,4
40001f28:	f800283a 	ret

40001f2c <main>:

/*********************************************************************
 * main
 *********************************************************************/
int main(int argc, char **argv)
{
40001f2c:	deffd704 	addi	sp,sp,-164
40001f30:	dfc02815 	stw	ra,160(sp)
40001f34:	df002715 	stw	fp,156(sp)
40001f38:	ddc02615 	stw	r23,152(sp)
40001f3c:	dd802515 	stw	r22,148(sp)
40001f40:	dd402415 	stw	r21,144(sp)
40001f44:	dd002315 	stw	r20,140(sp)
40001f48:	dcc02215 	stw	r19,136(sp)
40001f4c:	dc802115 	stw	r18,132(sp)
40001f50:	dc402015 	stw	r17,128(sp)
40001f54:	dc001f15 	stw	r16,124(sp)
40001f58:	df002704 	addi	fp,sp,156
40001f5c:	e13fe415 	stw	r4,-112(fp)
40001f60:	e17fe515 	stw	r5,-108(fp)
40001f64:	00900034 	movhi	r2,16384
40001f68:	108ab504 	addi	r2,r2,10964
40001f6c:	e0bfec15 	stw	r2,-80(fp)
40001f70:	00900074 	movhi	r2,16385
40001f74:	10929a04 	addi	r2,r2,19048
40001f78:	e0bfed15 	stw	r2,-76(fp)
40001f7c:	e0bfee04 	addi	r2,fp,-72
40001f80:	e0ffd904 	addi	r3,fp,-156
40001f84:	10c00015 	stw	r3,0(r2)
40001f88:	00d00034 	movhi	r3,16384
40001f8c:	18c87f04 	addi	r3,r3,8700
40001f90:	10c00115 	stw	r3,4(r2)
40001f94:	16c00215 	stw	sp,8(r2)
40001f98:	e0bfe604 	addi	r2,fp,-104
40001f9c:	1009883a 	mov	r4,r2
40001fa0:	0007b540 	call	40007b54 <_Unwind_SjLj_Register>
	printf("Entering ELE8307 Fall 2018 Project main() \r\n");
40001fa4:	01100074 	movhi	r4,16385
40001fa8:	00bfffc4 	movi	r2,-1
40001fac:	e0bfe715 	stw	r2,-100(fp)
40001fb0:	2112dd04 	addi	r4,r4,19316
40001fb4:	00089640 	call	40008964 <puts>

	pVGA = new VGA(ELE8307_VGA_0_BASE, (int)display);
40001fb8:	01000204 	movi	r4,8
40001fbc:	00038f80 	call	400038f8 <_Znwj>
40001fc0:	e0bff315 	stw	r2,-52(fp)
40001fc4:	009000b4 	movhi	r2,16386
40001fc8:	10a22904 	addi	r2,r2,-30556
40001fcc:	e13ff317 	ldw	r4,-52(fp)
40001fd0:	01400174 	movhi	r5,5
40001fd4:	100d883a 	mov	r6,r2
40001fd8:	00022440 	call	40002244 <_ZN3VGAC1Eii>
40001fdc:	e0bff317 	ldw	r2,-52(fp)
40001fe0:	d0a71b15 	stw	r2,-25492(gp)
	pVGA->send_to_display();
40001fe4:	d0a71b17 	ldw	r2,-25492(gp)
40001fe8:	1009883a 	mov	r4,r2
40001fec:	00022840 	call	40002284 <_ZN3VGA15send_to_displayEv>
	pVGA->clr();
40001ff0:	d0a71b17 	ldw	r2,-25492(gp)
40001ff4:	1009883a 	mov	r4,r2
40001ff8:	0001ec40 	call	40001ec4 <_ZN3VGA3clrEv>

    /* Initialisation et application a une image de la machine neuronale (poids aleatoires) */

    printf("> Exemple 1: NN Aleatoire \r\n");
40001ffc:	01100074 	movhi	r4,16385
40002000:	2112e804 	addi	r4,r4,19360
40002004:	00089640 	call	40008964 <puts>
    NN network(3);
40002008:	e0bfde04 	addi	r2,fp,-136
4000200c:	1009883a 	mov	r4,r2
40002010:	014000c4 	movi	r5,3
40002014:	0000d880 	call	40000d88 <_ZN2NNC1Ei>
    int matrix_size = 16;
40002018:	00800404 	movi	r2,16
4000201c:	e0bfda15 	stw	r2,-152(fp)

    network.layer[0].random_init(matrix_size*matrix_size, 40);
40002020:	e13fe017 	ldw	r4,-128(fp)
40002024:	e0ffda17 	ldw	r3,-152(fp)
40002028:	e0bfda17 	ldw	r2,-152(fp)
4000202c:	1887383a 	mul	r3,r3,r2
40002030:	00800044 	movi	r2,1
40002034:	e0bfe715 	stw	r2,-100(fp)
40002038:	180b883a 	mov	r5,r3
4000203c:	01800a04 	movi	r6,40
40002040:	000176c0 	call	4000176c <_ZN7NNLayer11random_initEii>
    network.layer[1].random_init(40, 40);network.layer[1].make_ternary();
40002044:	e0bfe017 	ldw	r2,-128(fp)
40002048:	10800604 	addi	r2,r2,24
4000204c:	1009883a 	mov	r4,r2
40002050:	01400a04 	movi	r5,40
40002054:	01800a04 	movi	r6,40
40002058:	000176c0 	call	4000176c <_ZN7NNLayer11random_initEii>
4000205c:	e0bfe017 	ldw	r2,-128(fp)
40002060:	10800604 	addi	r2,r2,24
40002064:	1009883a 	mov	r4,r2
40002068:	000196c0 	call	4000196c <_ZN7NNLayer12make_ternaryEv>
    network.layer[2].random_init(40, 10);network.layer[2].make_ternary();
4000206c:	e0bfe017 	ldw	r2,-128(fp)
40002070:	10800c04 	addi	r2,r2,48
40002074:	1009883a 	mov	r4,r2
40002078:	01400a04 	movi	r5,40
4000207c:	01800284 	movi	r6,10
40002080:	000176c0 	call	4000176c <_ZN7NNLayer11random_initEii>
40002084:	e0bfe017 	ldw	r2,-128(fp)
40002088:	10800c04 	addi	r2,r2,48
4000208c:	1009883a 	mov	r4,r2
40002090:	000196c0 	call	4000196c <_ZN7NNLayer12make_ternaryEv>

	Image my_image(60,200);
40002094:	e0bfe104 	addi	r2,fp,-124
40002098:	1009883a 	mov	r4,r2
4000209c:	01400f04 	movi	r5,60
400020a0:	01803204 	movi	r6,200
400020a4:	00002200 	call	40000220 <_ZN5ImageC1Eii>
	my_image.make_fractal();
400020a8:	e0ffe104 	addi	r3,fp,-124
400020ac:	00800084 	movi	r2,2
400020b0:	e0bfe715 	stw	r2,-100(fp)
400020b4:	1809883a 	mov	r4,r3
400020b8:	00004cc0 	call	400004cc <_ZN5Image12make_fractalEv>
	my_image.printToScreen(0,0,pVGA);
400020bc:	d0a71b17 	ldw	r2,-25492(gp)
400020c0:	e0ffe104 	addi	r3,fp,-124
400020c4:	1809883a 	mov	r4,r3
400020c8:	000b883a 	mov	r5,zero
400020cc:	000d883a 	mov	r6,zero
400020d0:	100f883a 	mov	r7,r2
400020d4:	0000b380 	call	40000b38 <_ZN5Image13printToScreenEiiP3VGA>
	my_image.make_bw();
400020d8:	e0bfe104 	addi	r2,fp,-124
400020dc:	1009883a 	mov	r4,r2
400020e0:	000076c0 	call	4000076c <_ZN5Image7make_bwEv>
	my_image.printToScreen(120,0,pVGA);
400020e4:	d0a71b17 	ldw	r2,-25492(gp)
400020e8:	e0ffe104 	addi	r3,fp,-124
400020ec:	1809883a 	mov	r4,r3
400020f0:	01401e04 	movi	r5,120
400020f4:	000d883a 	mov	r6,zero
400020f8:	100f883a 	mov	r7,r2
400020fc:	0000b380 	call	40000b38 <_ZN5Image13printToScreenEiiP3VGA>
	printf("Start processing ...");
40002100:	01100074 	movhi	r4,16385
40002104:	2112ef04 	addi	r4,r4,19388
40002108:	00088500 	call	40008850 <printf>

	for (int i=0;i<1;i++) {
4000210c:	e03fd915 	stw	zero,-156(fp)
40002110:	00002e06 	br	400021cc <main+0x2a0>
 * alt_nticks() returns the elapsed number of system clock ticks since reset.
 */

static ALT_INLINE alt_u32 ALT_ALWAYS_INLINE alt_nticks (void)
{
  return _alt_nticks;
40002114:	009000b4 	movhi	r2,16386
40002118:	10a22704 	addi	r2,r2,-30564
4000211c:	10800017 	ldw	r2,0(r2)
		int time1 = alt_nticks();
40002120:	e0bfdb15 	stw	r2,-148(fp)
		Image * result_image = my_image.apply_NN(&network, matrix_size, i);
40002124:	e13fe104 	addi	r4,fp,-124
40002128:	e0ffde04 	addi	r3,fp,-136
4000212c:	00800084 	movi	r2,2
40002130:	e0bfe715 	stw	r2,-100(fp)
40002134:	180b883a 	mov	r5,r3
40002138:	e1bfda17 	ldw	r6,-152(fp)
4000213c:	e1ffd917 	ldw	r7,-156(fp)
40002140:	00008340 	call	40000834 <_ZN5Image8apply_NNEP2NNii>
40002144:	e0bfdc15 	stw	r2,-144(fp)
40002148:	009000b4 	movhi	r2,16386
4000214c:	10a22704 	addi	r2,r2,-30564
40002150:	10800017 	ldw	r2,0(r2)
		int time2 = alt_nticks();
40002154:	e0bfdd15 	stw	r2,-140(fp)
		result_image->printToScreen(60*i,240,pVGA);
40002158:	e0bfd917 	ldw	r2,-156(fp)
4000215c:	11400f24 	muli	r5,r2,60
40002160:	d0e71b17 	ldw	r3,-25492(gp)
40002164:	00800084 	movi	r2,2
40002168:	e0bfe715 	stw	r2,-100(fp)
4000216c:	e13fdc17 	ldw	r4,-144(fp)
40002170:	01803c04 	movi	r6,240
40002174:	180f883a 	mov	r7,r3
40002178:	0000b380 	call	40000b38 <_ZN5Image13printToScreenEiiP3VGA>
		delete result_image;
4000217c:	e0ffdc17 	ldw	r3,-144(fp)
40002180:	e0fff415 	stw	r3,-48(fp)
40002184:	e0bff417 	ldw	r2,-48(fp)
40002188:	10000426 	beq	r2,zero,4000219c <main+0x270>
4000218c:	e13ff417 	ldw	r4,-48(fp)
40002190:	0000cbc0 	call	40000cbc <_ZN5ImageD1Ev>
40002194:	e13ff417 	ldw	r4,-48(fp)
40002198:	00034e80 	call	400034e8 <_ZdlPv>
		printf("done in %d ms\r\n",(time2-time1));
4000219c:	e0ffdd17 	ldw	r3,-140(fp)
400021a0:	e0bfdb17 	ldw	r2,-148(fp)
400021a4:	1887c83a 	sub	r3,r3,r2
400021a8:	01100074 	movhi	r4,16385
400021ac:	00800084 	movi	r2,2
400021b0:	e0bfe715 	stw	r2,-100(fp)
400021b4:	2112f504 	addi	r4,r4,19412
400021b8:	180b883a 	mov	r5,r3
400021bc:	00088500 	call	40008850 <printf>
	my_image.printToScreen(0,0,pVGA);
	my_image.make_bw();
	my_image.printToScreen(120,0,pVGA);
	printf("Start processing ...");

	for (int i=0;i<1;i++) {
400021c0:	e0bfd917 	ldw	r2,-156(fp)
400021c4:	10800044 	addi	r2,r2,1
400021c8:	e0bfd915 	stw	r2,-156(fp)
400021cc:	e0bfd917 	ldw	r2,-156(fp)
400021d0:	00bfd00e 	bge	zero,r2,40002114 <__alt_data_end+0xc0002114>
		int time2 = alt_nticks();
		result_image->printToScreen(60*i,240,pVGA);
		delete result_image;
		printf("done in %d ms\r\n",(time2-time1));
	}
	exit(0);
400021d4:	0009883a 	mov	r4,zero
400021d8:	0007ef80 	call	40007ef8 <exit>
400021dc:	e0fff615 	stw	r3,-40(fp)

    network.layer[0].random_init(matrix_size*matrix_size, 40);
    network.layer[1].random_init(40, 40);network.layer[1].make_ternary();
    network.layer[2].random_init(40, 10);network.layer[2].make_ternary();

	Image my_image(60,200);
400021e0:	e0bfe104 	addi	r2,fp,-124
400021e4:	e03fe715 	stw	zero,-100(fp)
400021e8:	1009883a 	mov	r4,r2
400021ec:	0000cbc0 	call	40000cbc <_ZN5ImageD1Ev>
400021f0:	e0fff617 	ldw	r3,-40(fp)
400021f4:	e0fff515 	stw	r3,-44(fp)
400021f8:	00000906 	br	40002220 <main+0x2f4>
400021fc:	e7002704 	addi	fp,fp,156
40002200:	e0ffe817 	ldw	r3,-96(fp)
40002204:	e0bfe717 	ldw	r2,-100(fp)
40002208:	10000426 	beq	r2,zero,4000221c <main+0x2f0>
4000220c:	10bfffc4 	addi	r2,r2,-1
40002210:	103ff226 	beq	r2,zero,400021dc <__alt_data_end+0xc00021dc>
40002214:	10bfffc4 	addi	r2,r2,-1
40002218:	003da0fa 	break	3
4000221c:	e0fff515 	stw	r3,-44(fp)
		result_image->printToScreen(60*i,240,pVGA);
		delete result_image;
		printf("done in %d ms\r\n",(time2-time1));
	}
	exit(0);
	return 0;
40002220:	e0bfde04 	addi	r2,fp,-136
40002224:	e03fe715 	stw	zero,-100(fp)
40002228:	1009883a 	mov	r4,r2
4000222c:	0000fa00 	call	40000fa0 <_ZN2NND1Ev>
40002230:	e0fff517 	ldw	r3,-44(fp)
40002234:	00bfffc4 	movi	r2,-1
40002238:	e0bfe715 	stw	r2,-100(fp)
4000223c:	1809883a 	mov	r4,r3
40002240:	0007d500 	call	40007d50 <_Unwind_SjLj_Resume>

40002244 <_ZN3VGAC1Eii>:
class VGA {
	int system_base_address;
	int memory_address;

public:
	VGA(int system_base_address, int memory_address) : system_base_address(system_base_address), memory_address(memory_address) {};
40002244:	defffc04 	addi	sp,sp,-16
40002248:	df000315 	stw	fp,12(sp)
4000224c:	df000304 	addi	fp,sp,12
40002250:	e13ffd15 	stw	r4,-12(fp)
40002254:	e17ffe15 	stw	r5,-8(fp)
40002258:	e1bfff15 	stw	r6,-4(fp)
4000225c:	e0bffd17 	ldw	r2,-12(fp)
40002260:	e0fffe17 	ldw	r3,-8(fp)
40002264:	10c00015 	stw	r3,0(r2)
40002268:	e0bffd17 	ldw	r2,-12(fp)
4000226c:	e0ffff17 	ldw	r3,-4(fp)
40002270:	10c00115 	stw	r3,4(r2)
40002274:	e037883a 	mov	sp,fp
40002278:	df000017 	ldw	fp,0(sp)
4000227c:	dec00104 	addi	sp,sp,4
40002280:	f800283a 	ret

40002284 <_ZN3VGA15send_to_displayEv>:
		if ( (x>=640) || (y>=480) ) return;
		int address = 640*y+x;
		IOWR_8DIRECT(memory_address, address, color);
	}

	inline void send_to_display() {
40002284:	defffe04 	addi	sp,sp,-8
40002288:	df000115 	stw	fp,4(sp)
4000228c:	df000104 	addi	fp,sp,4
40002290:	e13fff15 	stw	r4,-4(fp)
		IOWR(system_base_address,0,memory_address);
40002294:	e0bfff17 	ldw	r2,-4(fp)
40002298:	10800017 	ldw	r2,0(r2)
4000229c:	1007883a 	mov	r3,r2
400022a0:	e0bfff17 	ldw	r2,-4(fp)
400022a4:	10800117 	ldw	r2,4(r2)
400022a8:	18800035 	stwio	r2,0(r3)
	}
400022ac:	e037883a 	mov	sp,fp
400022b0:	df000017 	ldw	fp,0(sp)
400022b4:	dec00104 	addi	sp,sp,4
400022b8:	f800283a 	ret

400022bc <_ZL12read_sleb128PKhPl>:
400022bc:	0011883a 	mov	r8,zero
400022c0:	000d883a 	mov	r6,zero
400022c4:	21c00003 	ldbu	r7,0(r4)
400022c8:	20800044 	addi	r2,r4,1
400022cc:	1009883a 	mov	r4,r2
400022d0:	38c01fcc 	andi	r3,r7,127
400022d4:	1986983a 	sll	r3,r3,r6
400022d8:	3a403fcc 	andi	r9,r7,255
400022dc:	4a40201c 	xori	r9,r9,128
400022e0:	4a7fe004 	addi	r9,r9,-128
400022e4:	40d0b03a 	or	r8,r8,r3
400022e8:	318001c4 	addi	r6,r6,7
400022ec:	483ff516 	blt	r9,zero,400022c4 <__alt_data_end+0xc00022c4>
400022f0:	00c007c4 	movi	r3,31
400022f4:	19800536 	bltu	r3,r6,4000230c <_ZL12read_sleb128PKhPl+0x50>
400022f8:	39c0100c 	andi	r7,r7,64
400022fc:	38000326 	beq	r7,zero,4000230c <_ZL12read_sleb128PKhPl+0x50>
40002300:	00ffffc4 	movi	r3,-1
40002304:	198c983a 	sll	r6,r3,r6
40002308:	3210b03a 	or	r8,r6,r8
4000230c:	2a000015 	stw	r8,0(r5)
40002310:	f800283a 	ret

40002314 <_ZL16get_adjusted_ptrPKSt9type_infoS1_PPv>:
40002314:	28800017 	ldw	r2,0(r5)
40002318:	30c00017 	ldw	r3,0(r6)
4000231c:	defffb04 	addi	sp,sp,-20
40002320:	10800217 	ldw	r2,8(r2)
40002324:	dc400315 	stw	r17,12(sp)
40002328:	dc000215 	stw	r16,8(sp)
4000232c:	d9400115 	stw	r5,4(sp)
40002330:	dfc00415 	stw	ra,16(sp)
40002334:	2021883a 	mov	r16,r4
40002338:	d8c00015 	stw	r3,0(sp)
4000233c:	2809883a 	mov	r4,r5
40002340:	3023883a 	mov	r17,r6
40002344:	103ee83a 	callr	r2
40002348:	10803fcc 	andi	r2,r2,255
4000234c:	d9400117 	ldw	r5,4(sp)
40002350:	10000326 	beq	r2,zero,40002360 <_ZL16get_adjusted_ptrPKSt9type_infoS1_PPv+0x4c>
40002354:	d8800017 	ldw	r2,0(sp)
40002358:	10800017 	ldw	r2,0(r2)
4000235c:	d8800015 	stw	r2,0(sp)
40002360:	80800017 	ldw	r2,0(r16)
40002364:	8009883a 	mov	r4,r16
40002368:	d80d883a 	mov	r6,sp
4000236c:	10800417 	ldw	r2,16(r2)
40002370:	01c00044 	movi	r7,1
40002374:	103ee83a 	callr	r2
40002378:	10c03fcc 	andi	r3,r2,255
4000237c:	18000226 	beq	r3,zero,40002388 <_ZL16get_adjusted_ptrPKSt9type_infoS1_PPv+0x74>
40002380:	d8c00017 	ldw	r3,0(sp)
40002384:	88c00015 	stw	r3,0(r17)
40002388:	dfc00417 	ldw	ra,16(sp)
4000238c:	dc400317 	ldw	r17,12(sp)
40002390:	dc000217 	ldw	r16,8(sp)
40002394:	dec00504 	addi	sp,sp,20
40002398:	f800283a 	ret

4000239c <_ZL21size_of_encoded_valueh>:
4000239c:	deffff04 	addi	sp,sp,-4
400023a0:	dfc00015 	stw	ra,0(sp)
400023a4:	00803fc4 	movi	r2,255
400023a8:	20802026 	beq	r4,r2,4000242c <_ZL21size_of_encoded_valueh+0x90>
400023ac:	210001cc 	andi	r4,r4,7
400023b0:	00800144 	movi	r2,5
400023b4:	11001c36 	bltu	r2,r4,40002428 <_ZL21size_of_encoded_valueh+0x8c>
400023b8:	200890ba 	slli	r4,r4,2
400023bc:	00900034 	movhi	r2,16384
400023c0:	1088f404 	addi	r2,r2,9168
400023c4:	2089883a 	add	r4,r4,r2
400023c8:	20800017 	ldw	r2,0(r4)
400023cc:	1000683a 	jmp	r2
400023d0:	400023e8 	cmpgeui	zero,r8,143
400023d4:	40002428 	cmpgeui	zero,r8,144
400023d8:	400023f8 	rdprs	zero,r8,143
400023dc:	400023e8 	cmpgeui	zero,r8,143
400023e0:	40002418 	cmpnei	zero,r8,144
400023e4:	40002408 	cmpgei	zero,r8,144
400023e8:	00800104 	movi	r2,4
400023ec:	dfc00017 	ldw	ra,0(sp)
400023f0:	dec00104 	addi	sp,sp,4
400023f4:	f800283a 	ret
400023f8:	00800084 	movi	r2,2
400023fc:	dfc00017 	ldw	ra,0(sp)
40002400:	dec00104 	addi	sp,sp,4
40002404:	f800283a 	ret
40002408:	00800044 	movi	r2,1
4000240c:	dfc00017 	ldw	ra,0(sp)
40002410:	dec00104 	addi	sp,sp,4
40002414:	f800283a 	ret
40002418:	00800204 	movi	r2,8
4000241c:	dfc00017 	ldw	ra,0(sp)
40002420:	dec00104 	addi	sp,sp,4
40002424:	f800283a 	ret
40002428:	0007ed00 	call	40007ed0 <abort>
4000242c:	0005883a 	mov	r2,zero
40002430:	dfc00017 	ldw	ra,0(sp)
40002434:	dec00104 	addi	sp,sp,4
40002438:	f800283a 	ret

4000243c <_ZL28read_encoded_value_with_basehjPKhPj>:
4000243c:	defffa04 	addi	sp,sp,-24
40002440:	dc000315 	stw	r16,12(sp)
40002444:	dfc00515 	stw	ra,20(sp)
40002448:	dc400415 	stw	r17,16(sp)
4000244c:	00801404 	movi	r2,80
40002450:	2021883a 	mov	r16,r4
40002454:	20807526 	beq	r4,r2,4000262c <_ZL28read_encoded_value_with_basehjPKhPj+0x1f0>
40002458:	208003cc 	andi	r2,r4,15
4000245c:	00c00304 	movi	r3,12
40002460:	18807136 	bltu	r3,r2,40002628 <_ZL28read_encoded_value_with_basehjPKhPj+0x1ec>
40002464:	100490ba 	slli	r2,r2,2
40002468:	00d00034 	movhi	r3,16384
4000246c:	18c92004 	addi	r3,r3,9344
40002470:	10c5883a 	add	r2,r2,r3
40002474:	10800017 	ldw	r2,0(r2)
40002478:	2823883a 	mov	r17,r5
4000247c:	1000683a 	jmp	r2
40002480:	40002568 	cmpgeui	zero,r8,149
40002484:	40002598 	cmpnei	zero,r8,150
40002488:	40002550 	cmplti	zero,r8,149
4000248c:	400024b4 	orhi	zero,r8,146
40002490:	40002520 	cmpeqi	zero,r8,148
40002494:	400025d4 	ori	zero,r8,151
40002498:	40002628 	cmpgeui	zero,r8,152
4000249c:	40002628 	cmpgeui	zero,r8,152
400024a0:	40002628 	cmpgeui	zero,r8,152
400024a4:	400025e0 	cmpeqi	zero,r8,151
400024a8:	40002604 	addi	zero,r8,152
400024ac:	400024b4 	orhi	zero,r8,146
400024b0:	40002520 	cmpeqi	zero,r8,148
400024b4:	30800043 	ldbu	r2,1(r6)
400024b8:	30c00083 	ldbu	r3,2(r6)
400024bc:	310000c3 	ldbu	r4,3(r6)
400024c0:	32000003 	ldbu	r8,0(r6)
400024c4:	1004923a 	slli	r2,r2,8
400024c8:	1806943a 	slli	r3,r3,16
400024cc:	2008963a 	slli	r4,r4,24
400024d0:	1204b03a 	or	r2,r2,r8
400024d4:	1884b03a 	or	r2,r3,r2
400024d8:	2086b03a 	or	r3,r4,r2
400024dc:	30800104 	addi	r2,r6,4
400024e0:	18000926 	beq	r3,zero,40002508 <_ZL28read_encoded_value_with_basehjPKhPj+0xcc>
400024e4:	81401c0c 	andi	r5,r16,112
400024e8:	01000404 	movi	r4,16
400024ec:	29005526 	beq	r5,r4,40002644 <_ZL28read_encoded_value_with_basehjPKhPj+0x208>
400024f0:	84003fcc 	andi	r16,r16,255
400024f4:	8400201c 	xori	r16,r16,128
400024f8:	843fe004 	addi	r16,r16,-128
400024fc:	1c47883a 	add	r3,r3,r17
40002500:	8000010e 	bge	r16,zero,40002508 <_ZL28read_encoded_value_with_basehjPKhPj+0xcc>
40002504:	18c00017 	ldw	r3,0(r3)
40002508:	38c00015 	stw	r3,0(r7)
4000250c:	dfc00517 	ldw	ra,20(sp)
40002510:	dc400417 	ldw	r17,16(sp)
40002514:	dc000317 	ldw	r16,12(sp)
40002518:	dec00604 	addi	sp,sp,24
4000251c:	f800283a 	ret
40002520:	30800043 	ldbu	r2,1(r6)
40002524:	30c00083 	ldbu	r3,2(r6)
40002528:	310000c3 	ldbu	r4,3(r6)
4000252c:	32000003 	ldbu	r8,0(r6)
40002530:	1004923a 	slli	r2,r2,8
40002534:	1806943a 	slli	r3,r3,16
40002538:	2008963a 	slli	r4,r4,24
4000253c:	1204b03a 	or	r2,r2,r8
40002540:	1884b03a 	or	r2,r3,r2
40002544:	2086b03a 	or	r3,r4,r2
40002548:	30800204 	addi	r2,r6,8
4000254c:	003fe406 	br	400024e0 <__alt_data_end+0xc00024e0>
40002550:	30c00043 	ldbu	r3,1(r6)
40002554:	32000003 	ldbu	r8,0(r6)
40002558:	30800084 	addi	r2,r6,2
4000255c:	1806923a 	slli	r3,r3,8
40002560:	1a06b03a 	or	r3,r3,r8
40002564:	003fde06 	br	400024e0 <__alt_data_end+0xc00024e0>
40002568:	30800043 	ldbu	r2,1(r6)
4000256c:	30c00083 	ldbu	r3,2(r6)
40002570:	314000c3 	ldbu	r5,3(r6)
40002574:	31000003 	ldbu	r4,0(r6)
40002578:	1004923a 	slli	r2,r2,8
4000257c:	1806943a 	slli	r3,r3,16
40002580:	280a963a 	slli	r5,r5,24
40002584:	1104b03a 	or	r2,r2,r4
40002588:	1884b03a 	or	r2,r3,r2
4000258c:	2886b03a 	or	r3,r5,r2
40002590:	30800104 	addi	r2,r6,4
40002594:	003fd206 	br	400024e0 <__alt_data_end+0xc00024e0>
40002598:	3013883a 	mov	r9,r6
4000259c:	0007883a 	mov	r3,zero
400025a0:	0011883a 	mov	r8,zero
400025a4:	49000003 	ldbu	r4,0(r9)
400025a8:	48800044 	addi	r2,r9,1
400025ac:	1013883a 	mov	r9,r2
400025b0:	21401fcc 	andi	r5,r4,127
400025b4:	2a0a983a 	sll	r5,r5,r8
400025b8:	21003fcc 	andi	r4,r4,255
400025bc:	2100201c 	xori	r4,r4,128
400025c0:	213fe004 	addi	r4,r4,-128
400025c4:	1946b03a 	or	r3,r3,r5
400025c8:	420001c4 	addi	r8,r8,7
400025cc:	203ff516 	blt	r4,zero,400025a4 <__alt_data_end+0xc00025a4>
400025d0:	003fc306 	br	400024e0 <__alt_data_end+0xc00024e0>
400025d4:	30c00003 	ldbu	r3,0(r6)
400025d8:	30800044 	addi	r2,r6,1
400025dc:	003fc006 	br	400024e0 <__alt_data_end+0xc00024e0>
400025e0:	3009883a 	mov	r4,r6
400025e4:	d80b883a 	mov	r5,sp
400025e8:	d9800115 	stw	r6,4(sp)
400025ec:	d9c00215 	stw	r7,8(sp)
400025f0:	00022bc0 	call	400022bc <_ZL12read_sleb128PKhPl>
400025f4:	d8c00017 	ldw	r3,0(sp)
400025f8:	d9800117 	ldw	r6,4(sp)
400025fc:	d9c00217 	ldw	r7,8(sp)
40002600:	003fb706 	br	400024e0 <__alt_data_end+0xc00024e0>
40002604:	30c00043 	ldbu	r3,1(r6)
40002608:	32000003 	ldbu	r8,0(r6)
4000260c:	30800084 	addi	r2,r6,2
40002610:	1806923a 	slli	r3,r3,8
40002614:	1a06b03a 	or	r3,r3,r8
40002618:	18ffffcc 	andi	r3,r3,65535
4000261c:	18e0001c 	xori	r3,r3,32768
40002620:	18e00004 	addi	r3,r3,-32768
40002624:	003fae06 	br	400024e0 <__alt_data_end+0xc00024e0>
40002628:	0007ed00 	call	40007ed0 <abort>
4000262c:	318000c4 	addi	r6,r6,3
40002630:	00bfff04 	movi	r2,-4
40002634:	3084703a 	and	r2,r6,r2
40002638:	10c00017 	ldw	r3,0(r2)
4000263c:	10800104 	addi	r2,r2,4
40002640:	003fb106 	br	40002508 <__alt_data_end+0xc0002508>
40002644:	3023883a 	mov	r17,r6
40002648:	003fa906 	br	400024f0 <__alt_data_end+0xc00024f0>

4000264c <_ZL15get_ttype_entryP16lsda_header_infom>:
4000264c:	defffc04 	addi	sp,sp,-16
40002650:	dfc00315 	stw	ra,12(sp)
40002654:	dc400215 	stw	r17,8(sp)
40002658:	dc000115 	stw	r16,4(sp)
4000265c:	2021883a 	mov	r16,r4
40002660:	21000503 	ldbu	r4,20(r4)
40002664:	2823883a 	mov	r17,r5
40002668:	000239c0 	call	4000239c <_ZL21size_of_encoded_valueh>
4000266c:	1445383a 	mul	r2,r2,r17
40002670:	81800317 	ldw	r6,12(r16)
40002674:	81000503 	ldbu	r4,20(r16)
40002678:	81400217 	ldw	r5,8(r16)
4000267c:	308dc83a 	sub	r6,r6,r2
40002680:	d80f883a 	mov	r7,sp
40002684:	000243c0 	call	4000243c <_ZL28read_encoded_value_with_basehjPKhPj>
40002688:	d8800017 	ldw	r2,0(sp)
4000268c:	dfc00317 	ldw	ra,12(sp)
40002690:	dc400217 	ldw	r17,8(sp)
40002694:	dc000117 	ldw	r16,4(sp)
40002698:	dec00404 	addi	sp,sp,16
4000269c:	f800283a 	ret

400026a0 <_ZL20check_exception_specP16lsda_header_infoPKSt9type_infoPvl>:
400026a0:	defffb04 	addi	sp,sp,-20
400026a4:	dc000115 	stw	r16,4(sp)
400026a8:	24000317 	ldw	r16,12(r4)
400026ac:	01ce303a 	nor	r7,zero,r7
400026b0:	dc800315 	stw	r18,12(sp)
400026b4:	dc400215 	stw	r17,8(sp)
400026b8:	dfc00415 	stw	ra,16(sp)
400026bc:	2023883a 	mov	r17,r4
400026c0:	2825883a 	mov	r18,r5
400026c4:	d9800015 	stw	r6,0(sp)
400026c8:	81e1883a 	add	r16,r16,r7
400026cc:	8009883a 	mov	r4,r16
400026d0:	000b883a 	mov	r5,zero
400026d4:	000d883a 	mov	r6,zero
400026d8:	20800003 	ldbu	r2,0(r4)
400026dc:	84000044 	addi	r16,r16,1
400026e0:	8009883a 	mov	r4,r16
400026e4:	10c01fcc 	andi	r3,r2,127
400026e8:	1986983a 	sll	r3,r3,r6
400026ec:	10803fcc 	andi	r2,r2,255
400026f0:	1080201c 	xori	r2,r2,128
400026f4:	10bfe004 	addi	r2,r2,-128
400026f8:	28cab03a 	or	r5,r5,r3
400026fc:	318001c4 	addi	r6,r6,7
40002700:	103ff516 	blt	r2,zero,400026d8 <__alt_data_end+0xc00026d8>
40002704:	28000e26 	beq	r5,zero,40002740 <_ZL20check_exception_specP16lsda_header_infoPKSt9type_infoPvl+0xa0>
40002708:	8809883a 	mov	r4,r17
4000270c:	000264c0 	call	4000264c <_ZL15get_ttype_entryP16lsda_header_infom>
40002710:	1009883a 	mov	r4,r2
40002714:	900b883a 	mov	r5,r18
40002718:	d80d883a 	mov	r6,sp
4000271c:	00023140 	call	40002314 <_ZL16get_adjusted_ptrPKSt9type_infoS1_PPv>
40002720:	10c03fcc 	andi	r3,r2,255
40002724:	183fe926 	beq	r3,zero,400026cc <__alt_data_end+0xc00026cc>
40002728:	dfc00417 	ldw	ra,16(sp)
4000272c:	dc800317 	ldw	r18,12(sp)
40002730:	dc400217 	ldw	r17,8(sp)
40002734:	dc000117 	ldw	r16,4(sp)
40002738:	dec00504 	addi	sp,sp,20
4000273c:	f800283a 	ret
40002740:	0005883a 	mov	r2,zero
40002744:	003ff806 	br	40002728 <__alt_data_end+0xc0002728>

40002748 <_ZL21base_of_encoded_valuehP15_Unwind_Context>:
40002748:	deffff04 	addi	sp,sp,-4
4000274c:	dfc00015 	stw	ra,0(sp)
40002750:	00803fc4 	movi	r2,255
40002754:	20800e26 	beq	r4,r2,40002790 <_ZL21base_of_encoded_valuehP15_Unwind_Context+0x48>
40002758:	20801c0c 	andi	r2,r4,112
4000275c:	00c00804 	movi	r3,32
40002760:	10c01726 	beq	r2,r3,400027c0 <_ZL21base_of_encoded_valuehP15_Unwind_Context+0x78>
40002764:	18800e2e 	bgeu	r3,r2,400027a0 <_ZL21base_of_encoded_valuehP15_Unwind_Context+0x58>
40002768:	00c01004 	movi	r3,64
4000276c:	10c01026 	beq	r2,r3,400027b0 <_ZL21base_of_encoded_valuehP15_Unwind_Context+0x68>
40002770:	00c01404 	movi	r3,80
40002774:	10c00626 	beq	r2,r3,40002790 <_ZL21base_of_encoded_valuehP15_Unwind_Context+0x48>
40002778:	00c00c04 	movi	r3,48
4000277c:	10c00b1e 	bne	r2,r3,400027ac <_ZL21base_of_encoded_valuehP15_Unwind_Context+0x64>
40002780:	2809883a 	mov	r4,r5
40002784:	dfc00017 	ldw	ra,0(sp)
40002788:	dec00104 	addi	sp,sp,4
4000278c:	0007c2c1 	jmpi	40007c2c <_Unwind_GetDataRelBase>
40002790:	0005883a 	mov	r2,zero
40002794:	dfc00017 	ldw	ra,0(sp)
40002798:	dec00104 	addi	sp,sp,4
4000279c:	f800283a 	ret
400027a0:	103ffb26 	beq	r2,zero,40002790 <__alt_data_end+0xc0002790>
400027a4:	00c00404 	movi	r3,16
400027a8:	10fff926 	beq	r2,r3,40002790 <__alt_data_end+0xc0002790>
400027ac:	0007ed00 	call	40007ed0 <abort>
400027b0:	2809883a 	mov	r4,r5
400027b4:	dfc00017 	ldw	ra,0(sp)
400027b8:	dec00104 	addi	sp,sp,4
400027bc:	0007c1c1 	jmpi	40007c1c <_Unwind_GetRegionStart>
400027c0:	2809883a 	mov	r4,r5
400027c4:	dfc00017 	ldw	ra,0(sp)
400027c8:	dec00104 	addi	sp,sp,4
400027cc:	0007c341 	jmpi	40007c34 <_Unwind_GetTextRelBase>

400027d0 <_ZL28check_compact_exception_specPKSt9type_infoPvPKhij>:
400027d0:	defff504 	addi	sp,sp,-44
400027d4:	dc400515 	stw	r17,20(sp)
400027d8:	3823d23a 	srai	r17,r7,8
400027dc:	dcc00715 	stw	r19,28(sp)
400027e0:	dc800615 	stw	r18,24(sp)
400027e4:	dc000415 	stw	r16,16(sp)
400027e8:	dfc00a15 	stw	ra,40(sp)
400027ec:	dd400915 	stw	r21,36(sp)
400027f0:	dd000815 	stw	r20,32(sp)
400027f4:	d9400215 	stw	r5,8(sp)
400027f8:	3821883a 	mov	r16,r7
400027fc:	2025883a 	mov	r18,r4
40002800:	dcc00b17 	ldw	r19,44(sp)
40002804:	8800010e 	bge	r17,zero,4000280c <_ZL28check_compact_exception_specPKSt9type_infoPvPKhij+0x3c>
40002808:	0463c83a 	sub	r17,zero,r17
4000280c:	01000144 	movi	r4,5
40002810:	000b883a 	mov	r5,zero
40002814:	d9800315 	stw	r6,12(sp)
40002818:	00027480 	call	40002748 <_ZL21base_of_encoded_valuehP15_Unwind_Context>
4000281c:	d9800317 	ldw	r6,12(sp)
40002820:	d9c00104 	addi	r7,sp,4
40002824:	01000144 	movi	r4,5
40002828:	100b883a 	mov	r5,r2
4000282c:	000243c0 	call	4000243c <_ZL28read_encoded_value_with_basehjPKhPj>
40002830:	11fffe64 	muli	r7,r2,-7
40002834:	000d883a 	mov	r6,zero
40002838:	11000003 	ldbu	r4,0(r2)
4000283c:	10c001e4 	muli	r3,r2,7
40002840:	10800044 	addi	r2,r2,1
40002844:	21401fcc 	andi	r5,r4,127
40002848:	19c7883a 	add	r3,r3,r7
4000284c:	28c6983a 	sll	r3,r5,r3
40002850:	21003fcc 	andi	r4,r4,255
40002854:	2100201c 	xori	r4,r4,128
40002858:	213fe004 	addi	r4,r4,-128
4000285c:	30ccb03a 	or	r6,r6,r3
40002860:	203ff516 	blt	r4,zero,40002838 <__alt_data_end+0xc0002838>
40002864:	118d883a 	add	r6,r2,r6
40002868:	323ffe64 	muli	r8,r6,-7
4000286c:	3009883a 	mov	r4,r6
40002870:	000f883a 	mov	r7,zero
40002874:	20c00003 	ldbu	r3,0(r4)
40002878:	208001e4 	muli	r2,r4,7
4000287c:	21000044 	addi	r4,r4,1
40002880:	19401fcc 	andi	r5,r3,127
40002884:	1205883a 	add	r2,r2,r8
40002888:	2884983a 	sll	r2,r5,r2
4000288c:	18c03fcc 	andi	r3,r3,255
40002890:	18c0201c 	xori	r3,r3,128
40002894:	18ffe004 	addi	r3,r3,-128
40002898:	388eb03a 	or	r7,r7,r2
4000289c:	183ff516 	blt	r3,zero,40002874 <__alt_data_end+0xc0002874>
400028a0:	88803fcc 	andi	r2,r17,255
400028a4:	10bfffc4 	addi	r2,r2,-1
400028a8:	2087883a 	add	r3,r4,r2
400028ac:	318000c4 	addi	r6,r6,3
400028b0:	197ffe64 	muli	r5,r3,-7
400028b4:	31cd883a 	add	r6,r6,r7
400028b8:	047fff04 	movi	r17,-4
400028bc:	3462703a 	and	r17,r6,r17
400028c0:	002b883a 	mov	r21,zero
400028c4:	18800003 	ldbu	r2,0(r3)
400028c8:	190001e4 	muli	r4,r3,7
400028cc:	1d000044 	addi	r20,r3,1
400028d0:	10c01fcc 	andi	r3,r2,127
400028d4:	2149883a 	add	r4,r4,r5
400028d8:	1908983a 	sll	r4,r3,r4
400028dc:	10803fcc 	andi	r2,r2,255
400028e0:	1080201c 	xori	r2,r2,128
400028e4:	10bfe004 	addi	r2,r2,-128
400028e8:	a007883a 	mov	r3,r20
400028ec:	a92ab03a 	or	r21,r21,r4
400028f0:	103ff416 	blt	r2,zero,400028c4 <__alt_data_end+0xc00028c4>
400028f4:	84003fcc 	andi	r16,r16,255
400028f8:	a8001f26 	beq	r21,zero,40002978 <_ZL28check_compact_exception_specPKSt9type_infoPvPKhij+0x1a8>
400028fc:	8009883a 	mov	r4,r16
40002900:	000239c0 	call	4000239c <_ZL21size_of_encoded_valueh>
40002904:	ad7fffc4 	addi	r21,r21,-1
40002908:	1545383a 	mul	r2,r2,r21
4000290c:	8009883a 	mov	r4,r16
40002910:	980b883a 	mov	r5,r19
40002914:	144d883a 	add	r6,r2,r17
40002918:	d80f883a 	mov	r7,sp
4000291c:	000243c0 	call	4000243c <_ZL28read_encoded_value_with_basehjPKhPj>
40002920:	d9000017 	ldw	r4,0(sp)
40002924:	900b883a 	mov	r5,r18
40002928:	d9800204 	addi	r6,sp,8
4000292c:	00023140 	call	40002314 <_ZL16get_adjusted_ptrPKSt9type_infoS1_PPv>
40002930:	10c03fcc 	andi	r3,r2,255
40002934:	1800111e 	bne	r3,zero,4000297c <_ZL28check_compact_exception_specPKSt9type_infoPvPKhij+0x1ac>
40002938:	a1bffe64 	muli	r6,r20,-7
4000293c:	a009883a 	mov	r4,r20
40002940:	002b883a 	mov	r21,zero
40002944:	20c00003 	ldbu	r3,0(r4)
40002948:	208001e4 	muli	r2,r4,7
4000294c:	21000044 	addi	r4,r4,1
40002950:	19401fcc 	andi	r5,r3,127
40002954:	1185883a 	add	r2,r2,r6
40002958:	2884983a 	sll	r2,r5,r2
4000295c:	18c03fcc 	andi	r3,r3,255
40002960:	18c0201c 	xori	r3,r3,128
40002964:	18ffe004 	addi	r3,r3,-128
40002968:	a8aab03a 	or	r21,r21,r2
4000296c:	183ff516 	blt	r3,zero,40002944 <__alt_data_end+0xc0002944>
40002970:	2029883a 	mov	r20,r4
40002974:	003fe006 	br	400028f8 <__alt_data_end+0xc00028f8>
40002978:	0005883a 	mov	r2,zero
4000297c:	dfc00a17 	ldw	ra,40(sp)
40002980:	dd400917 	ldw	r21,36(sp)
40002984:	dd000817 	ldw	r20,32(sp)
40002988:	dcc00717 	ldw	r19,28(sp)
4000298c:	dc800617 	ldw	r18,24(sp)
40002990:	dc400517 	ldw	r17,20(sp)
40002994:	dc000417 	ldw	r16,16(sp)
40002998:	dec00b04 	addi	sp,sp,44
4000299c:	f800283a 	ret

400029a0 <_ZL17parse_lsda_headerP15_Unwind_ContextPKhP16lsda_header_info>:
400029a0:	defffb04 	addi	sp,sp,-20
400029a4:	dcc00315 	stw	r19,12(sp)
400029a8:	dc400115 	stw	r17,4(sp)
400029ac:	dc000015 	stw	r16,0(sp)
400029b0:	dfc00415 	stw	ra,16(sp)
400029b4:	dc800215 	stw	r18,8(sp)
400029b8:	2027883a 	mov	r19,r4
400029bc:	2821883a 	mov	r16,r5
400029c0:	3023883a 	mov	r17,r6
400029c4:	20003f26 	beq	r4,zero,40002ac4 <_ZL17parse_lsda_headerP15_Unwind_ContextPKhP16lsda_header_info+0x124>
400029c8:	0007c1c0 	call	40007c1c <_Unwind_GetRegionStart>
400029cc:	88800015 	stw	r2,0(r17)
400029d0:	84800003 	ldbu	r18,0(r16)
400029d4:	00c03fc4 	movi	r3,255
400029d8:	84000044 	addi	r16,r16,1
400029dc:	90c03726 	beq	r18,r3,40002abc <_ZL17parse_lsda_headerP15_Unwind_ContextPKhP16lsda_header_info+0x11c>
400029e0:	9009883a 	mov	r4,r18
400029e4:	980b883a 	mov	r5,r19
400029e8:	00027480 	call	40002748 <_ZL21base_of_encoded_valuehP15_Unwind_Context>
400029ec:	800d883a 	mov	r6,r16
400029f0:	9009883a 	mov	r4,r18
400029f4:	100b883a 	mov	r5,r2
400029f8:	89c00104 	addi	r7,r17,4
400029fc:	000243c0 	call	4000243c <_ZL28read_encoded_value_with_basehjPKhPj>
40002a00:	1021883a 	mov	r16,r2
40002a04:	80c00003 	ldbu	r3,0(r16)
40002a08:	01003fc4 	movi	r4,255
40002a0c:	80800044 	addi	r2,r16,1
40002a10:	88c00505 	stb	r3,20(r17)
40002a14:	18c03fcc 	andi	r3,r3,255
40002a18:	19002c26 	beq	r3,r4,40002acc <_ZL17parse_lsda_headerP15_Unwind_ContextPKhP16lsda_header_info+0x12c>
40002a1c:	100d883a 	mov	r6,r2
40002a20:	000f883a 	mov	r7,zero
40002a24:	000b883a 	mov	r5,zero
40002a28:	30c00003 	ldbu	r3,0(r6)
40002a2c:	10800044 	addi	r2,r2,1
40002a30:	100d883a 	mov	r6,r2
40002a34:	19001fcc 	andi	r4,r3,127
40002a38:	2148983a 	sll	r4,r4,r5
40002a3c:	18c03fcc 	andi	r3,r3,255
40002a40:	18c0201c 	xori	r3,r3,128
40002a44:	18ffe004 	addi	r3,r3,-128
40002a48:	390eb03a 	or	r7,r7,r4
40002a4c:	294001c4 	addi	r5,r5,7
40002a50:	183ff516 	blt	r3,zero,40002a28 <__alt_data_end+0xc0002a28>
40002a54:	11cf883a 	add	r7,r2,r7
40002a58:	89c00315 	stw	r7,12(r17)
40002a5c:	10c00003 	ldbu	r3,0(r2)
40002a60:	000f883a 	mov	r7,zero
40002a64:	10800044 	addi	r2,r2,1
40002a68:	88c00545 	stb	r3,21(r17)
40002a6c:	000b883a 	mov	r5,zero
40002a70:	10c00003 	ldbu	r3,0(r2)
40002a74:	10800044 	addi	r2,r2,1
40002a78:	19001fcc 	andi	r4,r3,127
40002a7c:	2148983a 	sll	r4,r4,r5
40002a80:	18c03fcc 	andi	r3,r3,255
40002a84:	18c0201c 	xori	r3,r3,128
40002a88:	18ffe004 	addi	r3,r3,-128
40002a8c:	390eb03a 	or	r7,r7,r4
40002a90:	294001c4 	addi	r5,r5,7
40002a94:	183ff616 	blt	r3,zero,40002a70 <__alt_data_end+0xc0002a70>
40002a98:	11cf883a 	add	r7,r2,r7
40002a9c:	89c00415 	stw	r7,16(r17)
40002aa0:	dfc00417 	ldw	ra,16(sp)
40002aa4:	dcc00317 	ldw	r19,12(sp)
40002aa8:	dc800217 	ldw	r18,8(sp)
40002aac:	dc400117 	ldw	r17,4(sp)
40002ab0:	dc000017 	ldw	r16,0(sp)
40002ab4:	dec00504 	addi	sp,sp,20
40002ab8:	f800283a 	ret
40002abc:	88800115 	stw	r2,4(r17)
40002ac0:	003fd006 	br	40002a04 <__alt_data_end+0xc0002a04>
40002ac4:	0005883a 	mov	r2,zero
40002ac8:	003fc006 	br	400029cc <__alt_data_end+0xc00029cc>
40002acc:	88000315 	stw	zero,12(r17)
40002ad0:	003fe206 	br	40002a5c <__alt_data_end+0xc0002a5c>

40002ad4 <__gxx_personality_sj0>:
40002ad4:	00900034 	movhi	r2,16384
40002ad8:	deffde04 	addi	sp,sp,-136
40002adc:	108ab504 	addi	r2,r2,10964
40002ae0:	d8801015 	stw	r2,64(sp)
40002ae4:	00900074 	movhi	r2,16385
40002ae8:	10929c04 	addi	r2,r2,19056
40002aec:	d8801115 	stw	r2,68(sp)
40002af0:	00900034 	movhi	r2,16384
40002af4:	108bf004 	addi	r2,r2,12224
40002af8:	d9001715 	stw	r4,92(sp)
40002afc:	d9000a04 	addi	r4,sp,40
40002b00:	d8801315 	stw	r2,76(sp)
40002b04:	dfc02115 	stw	ra,132(sp)
40002b08:	df002015 	stw	fp,128(sp)
40002b0c:	dec01215 	stw	sp,72(sp)
40002b10:	dec01415 	stw	sp,80(sp)
40002b14:	d9401a15 	stw	r5,104(sp)
40002b18:	d9801815 	stw	r6,96(sp)
40002b1c:	d9c01915 	stw	r7,100(sp)
40002b20:	0007b540 	call	40007b54 <_Unwind_SjLj_Register>
40002b24:	d8c01717 	ldw	r3,92(sp)
40002b28:	d8000915 	stw	zero,36(sp)
40002b2c:	d8000815 	stw	zero,32(sp)
40002b30:	00800044 	movi	r2,1
40002b34:	18800926 	beq	r3,r2,40002b5c <__gxx_personality_sj0+0x88>
40002b38:	014000c4 	movi	r5,3
40002b3c:	d9401715 	stw	r5,92(sp)
40002b40:	d9000a04 	addi	r4,sp,40
40002b44:	0007b6c0 	call	40007b6c <_Unwind_SjLj_Unregister>
40002b48:	d8801717 	ldw	r2,92(sp)
40002b4c:	dfc02117 	ldw	ra,132(sp)
40002b50:	df002017 	ldw	fp,128(sp)
40002b54:	dec02204 	addi	sp,sp,136
40002b58:	f800283a 	ret
40002b5c:	d9401817 	ldw	r5,96(sp)
40002b60:	012f3574 	movhi	r4,48341
40002b64:	21354004 	addi	r4,r4,-11008
40002b68:	2909883a 	add	r4,r5,r4
40002b6c:	2145803a 	cmpltu	r2,r4,r5
40002b70:	d9401917 	ldw	r5,100(sp)
40002b74:	d8c01b05 	stb	r3,108(sp)
40002b78:	00ee2cb4 	movhi	r3,47282
40002b7c:	18eaaf04 	addi	r3,r3,-21828
40002b80:	28c7883a 	add	r3,r5,r3
40002b84:	10c5883a 	add	r2,r2,r3
40002b88:	10003526 	beq	r2,zero,40002c60 <__gxx_personality_sj0+0x18c>
40002b8c:	d8c01a17 	ldw	r3,104(sp)
40002b90:	00800184 	movi	r2,6
40002b94:	18803826 	beq	r3,r2,40002c78 <__gxx_personality_sj0+0x1a4>
40002b98:	d9002317 	ldw	r4,140(sp)
40002b9c:	00ffffc4 	movi	r3,-1
40002ba0:	d8c00b15 	stw	r3,44(sp)
40002ba4:	0007c100 	call	40007c10 <_Unwind_GetLanguageSpecificData>
40002ba8:	d8801915 	stw	r2,100(sp)
40002bac:	1000a326 	beq	r2,zero,40002e3c <__gxx_personality_sj0+0x368>
40002bb0:	d9002317 	ldw	r4,140(sp)
40002bb4:	d9401917 	ldw	r5,100(sp)
40002bb8:	d80d883a 	mov	r6,sp
40002bbc:	00bfffc4 	movi	r2,-1
40002bc0:	d8800b15 	stw	r2,44(sp)
40002bc4:	00029a00 	call	400029a0 <_ZL17parse_lsda_headerP15_Unwind_ContextPKhP16lsda_header_info>
40002bc8:	d9000503 	ldbu	r4,20(sp)
40002bcc:	d9402317 	ldw	r5,140(sp)
40002bd0:	d8801715 	stw	r2,92(sp)
40002bd4:	00027480 	call	40002748 <_ZL21base_of_encoded_valuehP15_Unwind_Context>
40002bd8:	d9002317 	ldw	r4,140(sp)
40002bdc:	d9400804 	addi	r5,sp,32
40002be0:	d8800215 	stw	r2,8(sp)
40002be4:	0007be00 	call	40007be0 <_Unwind_GetIPInfo>
40002be8:	d8c00817 	ldw	r3,32(sp)
40002bec:	1800011e 	bne	r3,zero,40002bf4 <__gxx_personality_sj0+0x120>
40002bf0:	10bfffc4 	addi	r2,r2,-1
40002bf4:	10009116 	blt	r2,zero,40002e3c <__gxx_personality_sj0+0x368>
40002bf8:	10004c1e 	bne	r2,zero,40002d2c <__gxx_personality_sj0+0x258>
40002bfc:	d8001c15 	stw	zero,112(sp)
40002c00:	00800044 	movi	r2,1
40002c04:	d8001715 	stw	zero,92(sp)
40002c08:	d8001815 	stw	zero,96(sp)
40002c0c:	d9001a17 	ldw	r4,104(sp)
40002c10:	20c0004c 	andi	r3,r4,1
40002c14:	18008c26 	beq	r3,zero,40002e48 <__gxx_personality_sj0+0x374>
40002c18:	00c00084 	movi	r3,2
40002c1c:	10c08726 	beq	r2,r3,40002e3c <__gxx_personality_sj0+0x368>
40002c20:	d8801b03 	ldbu	r2,108(sp)
40002c24:	1000d21e 	bne	r2,zero,40002f70 <__gxx_personality_sj0+0x49c>
40002c28:	d9402217 	ldw	r5,136(sp)
40002c2c:	d8801717 	ldw	r2,92(sp)
40002c30:	d8c01817 	ldw	r3,96(sp)
40002c34:	d9001917 	ldw	r4,100(sp)
40002c38:	28bffb15 	stw	r2,-20(r5)
40002c3c:	d8800917 	ldw	r2,36(sp)
40002c40:	28fffc15 	stw	r3,-16(r5)
40002c44:	00c00184 	movi	r3,6
40002c48:	28bfff15 	stw	r2,-4(r5)
40002c4c:	d8801c17 	ldw	r2,112(sp)
40002c50:	293ffd15 	stw	r4,-12(r5)
40002c54:	d8c01715 	stw	r3,92(sp)
40002c58:	28bffe15 	stw	r2,-8(r5)
40002c5c:	003fb806 	br	40002b40 <__alt_data_end+0xc0002b40>
40002c60:	d8801717 	ldw	r2,92(sp)
40002c64:	113fc936 	bltu	r2,r4,40002b8c <__alt_data_end+0xc0002b8c>
40002c68:	d8c01a17 	ldw	r3,104(sp)
40002c6c:	d8001b05 	stb	zero,108(sp)
40002c70:	00800184 	movi	r2,6
40002c74:	18bfc81e 	bne	r3,r2,40002b98 <__alt_data_end+0xc0002b98>
40002c78:	d8801b03 	ldbu	r2,108(sp)
40002c7c:	103fc61e 	bne	r2,zero,40002b98 <__alt_data_end+0xc0002b98>
40002c80:	d9002217 	ldw	r4,136(sp)
40002c84:	d9402217 	ldw	r5,136(sp)
40002c88:	d8802217 	ldw	r2,136(sp)
40002c8c:	213ffe17 	ldw	r4,-8(r4)
40002c90:	297ffb17 	ldw	r5,-20(r5)
40002c94:	10bffd17 	ldw	r2,-12(r2)
40002c98:	d9001c15 	stw	r4,112(sp)
40002c9c:	d9401715 	stw	r5,92(sp)
40002ca0:	d8801915 	stw	r2,100(sp)
40002ca4:	20008726 	beq	r4,zero,40002ec4 <__gxx_personality_sj0+0x3f0>
40002ca8:	d8801717 	ldw	r2,92(sp)
40002cac:	10006f0e 	bge	r2,zero,40002e6c <__gxx_personality_sj0+0x398>
40002cb0:	d9002317 	ldw	r4,140(sp)
40002cb4:	d9401917 	ldw	r5,100(sp)
40002cb8:	d80d883a 	mov	r6,sp
40002cbc:	00bfffc4 	movi	r2,-1
40002cc0:	d8800b15 	stw	r2,44(sp)
40002cc4:	00029a00 	call	400029a0 <_ZL17parse_lsda_headerP15_Unwind_ContextPKhP16lsda_header_info>
40002cc8:	d9000503 	ldbu	r4,20(sp)
40002ccc:	d9402317 	ldw	r5,140(sp)
40002cd0:	00027480 	call	40002748 <_ZL21base_of_encoded_valuehP15_Unwind_Context>
40002cd4:	d9000503 	ldbu	r4,20(sp)
40002cd8:	d9402317 	ldw	r5,140(sp)
40002cdc:	d8800215 	stw	r2,8(sp)
40002ce0:	00027480 	call	40002748 <_ZL21base_of_encoded_valuehP15_Unwind_Context>
40002ce4:	d8c02217 	ldw	r3,136(sp)
40002ce8:	18bffe15 	stw	r2,-8(r3)
40002cec:	00005f06 	br	40002e6c <__gxx_personality_sj0+0x398>
40002cf0:	000f883a 	mov	r7,zero
40002cf4:	000d883a 	mov	r6,zero
40002cf8:	19000003 	ldbu	r4,0(r3)
40002cfc:	18c00044 	addi	r3,r3,1
40002d00:	d8c01715 	stw	r3,92(sp)
40002d04:	21401fcc 	andi	r5,r4,127
40002d08:	298a983a 	sll	r5,r5,r6
40002d0c:	21003fcc 	andi	r4,r4,255
40002d10:	2100201c 	xori	r4,r4,128
40002d14:	213fe004 	addi	r4,r4,-128
40002d18:	394eb03a 	or	r7,r7,r5
40002d1c:	318001c4 	addi	r6,r6,7
40002d20:	203ff516 	blt	r4,zero,40002cf8 <__alt_data_end+0xc0002cf8>
40002d24:	10bfffc4 	addi	r2,r2,-1
40002d28:	10000e26 	beq	r2,zero,40002d64 <__gxx_personality_sj0+0x290>
40002d2c:	d8c01717 	ldw	r3,92(sp)
40002d30:	0011883a 	mov	r8,zero
40002d34:	000d883a 	mov	r6,zero
40002d38:	19000003 	ldbu	r4,0(r3)
40002d3c:	18c00044 	addi	r3,r3,1
40002d40:	21401fcc 	andi	r5,r4,127
40002d44:	298a983a 	sll	r5,r5,r6
40002d48:	21003fcc 	andi	r4,r4,255
40002d4c:	2100201c 	xori	r4,r4,128
40002d50:	213fe004 	addi	r4,r4,-128
40002d54:	4150b03a 	or	r8,r8,r5
40002d58:	318001c4 	addi	r6,r6,7
40002d5c:	203ff616 	blt	r4,zero,40002d38 <__alt_data_end+0xc0002d38>
40002d60:	003fe306 	br	40002cf0 <__alt_data_end+0xc0002cf0>
40002d64:	42000044 	addi	r8,r8,1
40002d68:	da001c15 	stw	r8,112(sp)
40002d6c:	38004f26 	beq	r7,zero,40002eac <__gxx_personality_sj0+0x3d8>
40002d70:	d8800417 	ldw	r2,16(sp)
40002d74:	39ffffc4 	addi	r7,r7,-1
40002d78:	11c5883a 	add	r2,r2,r7
40002d7c:	d8801815 	stw	r2,96(sp)
40002d80:	40002e26 	beq	r8,zero,40002e3c <__gxx_personality_sj0+0x368>
40002d84:	10004b26 	beq	r2,zero,40002eb4 <__gxx_personality_sj0+0x3e0>
40002d88:	d8c01a17 	ldw	r3,104(sp)
40002d8c:	18c0020c 	andi	r3,r3,8
40002d90:	d8c01e15 	stw	r3,120(sp)
40002d94:	1800801e 	bne	r3,zero,40002f98 <__gxx_personality_sj0+0x4c4>
40002d98:	d8801b03 	ldbu	r2,108(sp)
40002d9c:	1000821e 	bne	r2,zero,40002fa8 <__gxx_personality_sj0+0x4d4>
40002da0:	d9002217 	ldw	r4,136(sp)
40002da4:	20800017 	ldw	r2,0(r4)
40002da8:	1080004c 	andi	r2,r2,1
40002dac:	1000821e 	bne	r2,zero,40002fb8 <__gxx_personality_sj0+0x4e4>
40002db0:	d9402217 	ldw	r5,136(sp)
40002db4:	28800504 	addi	r2,r5,20
40002db8:	d8800915 	stw	r2,36(sp)
40002dbc:	10bff017 	ldw	r2,-64(r2)
40002dc0:	d8801d15 	stw	r2,116(sp)
40002dc4:	d9001b03 	ldbu	r4,108(sp)
40002dc8:	d8001b45 	stb	zero,109(sp)
40002dcc:	d9001f15 	stw	r4,124(sp)
40002dd0:	00000e06 	br	40002e0c <__gxx_personality_sj0+0x338>
40002dd4:	01c03d0e 	bge	zero,r7,40002ecc <__gxx_personality_sj0+0x3f8>
40002dd8:	017fffc4 	movi	r5,-1
40002ddc:	d9400b15 	stw	r5,44(sp)
40002de0:	d809883a 	mov	r4,sp
40002de4:	380b883a 	mov	r5,r7
40002de8:	000264c0 	call	4000264c <_ZL15get_ttype_entryP16lsda_header_infom>
40002dec:	10004f26 	beq	r2,zero,40002f2c <__gxx_personality_sj0+0x458>
40002df0:	d8c01d17 	ldw	r3,116(sp)
40002df4:	1800611e 	bne	r3,zero,40002f7c <__gxx_personality_sj0+0x4a8>
40002df8:	d8800617 	ldw	r2,24(sp)
40002dfc:	10005726 	beq	r2,zero,40002f5c <__gxx_personality_sj0+0x488>
40002e00:	d9401717 	ldw	r5,92(sp)
40002e04:	2885883a 	add	r2,r5,r2
40002e08:	d8801815 	stw	r2,96(sp)
40002e0c:	d9001817 	ldw	r4,96(sp)
40002e10:	d9400704 	addi	r5,sp,28
40002e14:	00022bc0 	call	400022bc <_ZL12read_sleb128PKhPl>
40002e18:	1009883a 	mov	r4,r2
40002e1c:	d9400604 	addi	r5,sp,24
40002e20:	d8801715 	stw	r2,92(sp)
40002e24:	00022bc0 	call	400022bc <_ZL12read_sleb128PKhPl>
40002e28:	d9c00717 	ldw	r7,28(sp)
40002e2c:	383fe91e 	bne	r7,zero,40002dd4 <__alt_data_end+0xc0002dd4>
40002e30:	01000044 	movi	r4,1
40002e34:	d9001b45 	stb	r4,109(sp)
40002e38:	003fef06 	br	40002df8 <__alt_data_end+0xc0002df8>
40002e3c:	01000204 	movi	r4,8
40002e40:	d9001715 	stw	r4,92(sp)
40002e44:	003f3e06 	br	40002b40 <__alt_data_end+0xc0002b40>
40002e48:	d9001a17 	ldw	r4,104(sp)
40002e4c:	20c0020c 	andi	r3,r4,8
40002e50:	1800021e 	bne	r3,zero,40002e5c <__gxx_personality_sj0+0x388>
40002e54:	d8c01b03 	ldbu	r3,108(sp)
40002e58:	18001826 	beq	r3,zero,40002ebc <__gxx_personality_sj0+0x3e8>
40002e5c:	00c00044 	movi	r3,1
40002e60:	10c05926 	beq	r2,r3,40002fc8 <__gxx_personality_sj0+0x4f4>
40002e64:	d9401717 	ldw	r5,92(sp)
40002e68:	28005816 	blt	r5,zero,40002fcc <__gxx_personality_sj0+0x4f8>
40002e6c:	d9802217 	ldw	r6,136(sp)
40002e70:	d9002317 	ldw	r4,140(sp)
40002e74:	00bfffc4 	movi	r2,-1
40002e78:	000b883a 	mov	r5,zero
40002e7c:	d8800b15 	stw	r2,44(sp)
40002e80:	0007bb40 	call	40007bb4 <_Unwind_SetGR>
40002e84:	d9002317 	ldw	r4,140(sp)
40002e88:	d9801717 	ldw	r6,92(sp)
40002e8c:	01400044 	movi	r5,1
40002e90:	0007bb40 	call	40007bb4 <_Unwind_SetGR>
40002e94:	d9002317 	ldw	r4,140(sp)
40002e98:	d9401c17 	ldw	r5,112(sp)
40002e9c:	0007c000 	call	40007c00 <_Unwind_SetIP>
40002ea0:	010001c4 	movi	r4,7
40002ea4:	d9001715 	stw	r4,92(sp)
40002ea8:	003f2506 	br	40002b40 <__alt_data_end+0xc0002b40>
40002eac:	d8c01c17 	ldw	r3,112(sp)
40002eb0:	183fe226 	beq	r3,zero,40002e3c <__alt_data_end+0xc0002e3c>
40002eb4:	00800084 	movi	r2,2
40002eb8:	003f5206 	br	40002c04 <__alt_data_end+0xc0002c04>
40002ebc:	00c00044 	movi	r3,1
40002ec0:	10ff791e 	bne	r2,r3,40002ca8 <__alt_data_end+0xc0002ca8>
40002ec4:	d9002217 	ldw	r4,136(sp)
40002ec8:	0003bd80 	call	40003bd8 <__cxa_call_terminate>
40002ecc:	d9001d17 	ldw	r4,116(sp)
40002ed0:	20000426 	beq	r4,zero,40002ee4 <__gxx_personality_sj0+0x410>
40002ed4:	d9401e17 	ldw	r5,120(sp)
40002ed8:	2800021e 	bne	r5,zero,40002ee4 <__gxx_personality_sj0+0x410>
40002edc:	d8801f17 	ldw	r2,124(sp)
40002ee0:	10001626 	beq	r2,zero,40002f3c <__gxx_personality_sj0+0x468>
40002ee4:	d8c00317 	ldw	r3,12(sp)
40002ee8:	01ce303a 	nor	r7,zero,r7
40002eec:	000d883a 	mov	r6,zero
40002ef0:	19c7883a 	add	r3,r3,r7
40002ef4:	000b883a 	mov	r5,zero
40002ef8:	18800003 	ldbu	r2,0(r3)
40002efc:	18c00044 	addi	r3,r3,1
40002f00:	11001fcc 	andi	r4,r2,127
40002f04:	2148983a 	sll	r4,r4,r5
40002f08:	10803fcc 	andi	r2,r2,255
40002f0c:	1080201c 	xori	r2,r2,128
40002f10:	10bfe004 	addi	r2,r2,-128
40002f14:	310cb03a 	or	r6,r6,r4
40002f18:	294001c4 	addi	r5,r5,7
40002f1c:	103ff616 	blt	r2,zero,40002ef8 <__alt_data_end+0xc0002ef8>
40002f20:	3005003a 	cmpeq	r2,r6,zero
40002f24:	10803fcc 	andi	r2,r2,255
40002f28:	103fb326 	beq	r2,zero,40002df8 <__alt_data_end+0xc0002df8>
40002f2c:	d8800717 	ldw	r2,28(sp)
40002f30:	d8801715 	stw	r2,92(sp)
40002f34:	008000c4 	movi	r2,3
40002f38:	003f3406 	br	40002c0c <__alt_data_end+0xc0002c0c>
40002f3c:	d9401d17 	ldw	r5,116(sp)
40002f40:	d9800917 	ldw	r6,36(sp)
40002f44:	00ffffc4 	movi	r3,-1
40002f48:	d809883a 	mov	r4,sp
40002f4c:	d8c00b15 	stw	r3,44(sp)
40002f50:	00026a00 	call	400026a0 <_ZL20check_exception_specP16lsda_header_infoPKSt9type_infoPvl>
40002f54:	1080005c 	xori	r2,r2,1
40002f58:	003ff206 	br	40002f24 <__alt_data_end+0xc0002f24>
40002f5c:	d8801b43 	ldbu	r2,109(sp)
40002f60:	103fb626 	beq	r2,zero,40002e3c <__alt_data_end+0xc0002e3c>
40002f64:	d8001715 	stw	zero,92(sp)
40002f68:	00800084 	movi	r2,2
40002f6c:	003f2706 	br	40002c0c <__alt_data_end+0xc0002c0c>
40002f70:	00800184 	movi	r2,6
40002f74:	d8801715 	stw	r2,92(sp)
40002f78:	003ef106 	br	40002b40 <__alt_data_end+0xc0002b40>
40002f7c:	1009883a 	mov	r4,r2
40002f80:	180b883a 	mov	r5,r3
40002f84:	d9800904 	addi	r6,sp,36
40002f88:	00023140 	call	40002314 <_ZL16get_adjusted_ptrPKSt9type_infoS1_PPv>
40002f8c:	10803fcc 	andi	r2,r2,255
40002f90:	103fe61e 	bne	r2,zero,40002f2c <__alt_data_end+0xc0002f2c>
40002f94:	003f9806 	br	40002df8 <__alt_data_end+0xc0002df8>
40002f98:	00900074 	movhi	r2,16385
40002f9c:	109b0504 	addi	r2,r2,27668
40002fa0:	d8801d15 	stw	r2,116(sp)
40002fa4:	003f8706 	br	40002dc4 <__alt_data_end+0xc0002dc4>
40002fa8:	00d00074 	movhi	r3,16385
40002fac:	18db0704 	addi	r3,r3,27676
40002fb0:	d8c01d15 	stw	r3,116(sp)
40002fb4:	003f8306 	br	40002dc4 <__alt_data_end+0xc0002dc4>
40002fb8:	20bff517 	ldw	r2,-44(r4)
40002fbc:	003f7e06 	br	40002db8 <__alt_data_end+0xc0002db8>
40002fc0:	d9000c17 	ldw	r4,48(sp)
40002fc4:	00039c00 	call	400039c0 <__cxa_begin_catch>
40002fc8:	00035ac0 	call	400035ac <_ZSt9terminatev>
40002fcc:	d8c00b15 	stw	r3,44(sp)
40002fd0:	00035d40 	call	400035d4 <_ZSt10unexpectedv>

40002fd4 <__cxa_call_unexpected>:
40002fd4:	00900034 	movhi	r2,16384
40002fd8:	deffe604 	addi	sp,sp,-104
40002fdc:	108ab504 	addi	r2,r2,10964
40002fe0:	d8800d15 	stw	r2,52(sp)
40002fe4:	00900074 	movhi	r2,16385
40002fe8:	1092a004 	addi	r2,r2,19072
40002fec:	d8800e15 	stw	r2,56(sp)
40002ff0:	d8800104 	addi	r2,sp,4
40002ff4:	d8800f15 	stw	r2,60(sp)
40002ff8:	00900034 	movhi	r2,16384
40002ffc:	108c1804 	addi	r2,r2,12384
40003000:	d9001415 	stw	r4,80(sp)
40003004:	d9000704 	addi	r4,sp,28
40003008:	dfc01915 	stw	ra,100(sp)
4000300c:	d8801015 	stw	r2,64(sp)
40003010:	df001815 	stw	fp,96(sp)
40003014:	dec01115 	stw	sp,68(sp)
40003018:	0007b540 	call	40007b54 <_Unwind_SjLj_Register>
4000301c:	d9001417 	ldw	r4,80(sp)
40003020:	00039c00 	call	400039c0 <__cxa_begin_catch>
40003024:	d8c01417 	ldw	r3,80(sp)
40003028:	18bffe17 	ldw	r2,-8(r3)
4000302c:	193ff717 	ldw	r4,-36(r3)
40003030:	18fffd17 	ldw	r3,-12(r3)
40003034:	d8800315 	stw	r2,12(sp)
40003038:	d8c01615 	stw	r3,88(sp)
4000303c:	d8c01417 	ldw	r3,80(sp)
40003040:	18fffb17 	ldw	r3,-20(r3)
40003044:	d8c01515 	stw	r3,84(sp)
40003048:	d8c01417 	ldw	r3,80(sp)
4000304c:	18fff817 	ldw	r3,-32(r3)
40003050:	d8c01415 	stw	r3,80(sp)
40003054:	00c00044 	movi	r3,1
40003058:	d8c00815 	stw	r3,32(sp)
4000305c:	00035c40 	call	400035c4 <_ZN10__cxxabiv112__unexpectedEPFvvE>
40003060:	d8c00917 	ldw	r3,36(sp)
40003064:	d8800817 	ldw	r2,32(sp)
40003068:	d8c01715 	stw	r3,92(sp)
4000306c:	10000a26 	beq	r2,zero,40003098 <__cxa_call_unexpected+0xc4>
40003070:	10bfffc4 	addi	r2,r2,-1
40003074:	10000126 	beq	r2,zero,4000307c <__cxa_call_unexpected+0xa8>
40003078:	003da0fa 	break	3
4000307c:	d8000815 	stw	zero,32(sp)
40003080:	0003a740 	call	40003a74 <__cxa_end_catch>
40003084:	0003a740 	call	40003a74 <__cxa_end_catch>
40003088:	d9001717 	ldw	r4,92(sp)
4000308c:	00bfffc4 	movi	r2,-1
40003090:	d8800815 	stw	r2,32(sp)
40003094:	0007d500 	call	40007d50 <_Unwind_SjLj_Resume>
40003098:	d9001717 	ldw	r4,92(sp)
4000309c:	00039c00 	call	400039c0 <__cxa_begin_catch>
400030a0:	00032080 	call	40003208 <__cxa_get_globals_fast>
400030a4:	10800017 	ldw	r2,0(r2)
400030a8:	10c00b17 	ldw	r3,44(r2)
400030ac:	18c0004c 	andi	r3,r3,1
400030b0:	18001e26 	beq	r3,zero,4000312c <__cxa_call_unexpected+0x158>
400030b4:	10800017 	ldw	r2,0(r2)
400030b8:	d8801715 	stw	r2,92(sp)
400030bc:	d8801517 	ldw	r2,84(sp)
400030c0:	00802b0e 	bge	zero,r2,40003170 <__cxa_call_unexpected+0x19c>
400030c4:	d8c01717 	ldw	r3,92(sp)
400030c8:	d8800317 	ldw	r2,12(sp)
400030cc:	d9801617 	ldw	r6,88(sp)
400030d0:	193ff017 	ldw	r4,-64(r3)
400030d4:	d9c01517 	ldw	r7,84(sp)
400030d8:	d8800015 	stw	r2,0(sp)
400030dc:	180b883a 	mov	r5,r3
400030e0:	00800084 	movi	r2,2
400030e4:	d8800815 	stw	r2,32(sp)
400030e8:	00027d00 	call	400027d0 <_ZL28check_compact_exception_specPKSt9type_infoPvPKhij>
400030ec:	10803fcc 	andi	r2,r2,255
400030f0:	10001e1e 	bne	r2,zero,4000316c <__cxa_call_unexpected+0x198>
400030f4:	d8800317 	ldw	r2,12(sp)
400030f8:	d9801617 	ldw	r6,88(sp)
400030fc:	d9c01517 	ldw	r7,84(sp)
40003100:	01100074 	movhi	r4,16385
40003104:	d8800015 	stw	r2,0(sp)
40003108:	21135604 	addi	r4,r4,19800
4000310c:	00800084 	movi	r2,2
40003110:	000b883a 	mov	r5,zero
40003114:	d8800815 	stw	r2,32(sp)
40003118:	00027d00 	call	400027d0 <_ZL28check_compact_exception_specPKSt9type_infoPvPKhij>
4000311c:	10803fcc 	andi	r2,r2,255
40003120:	1000051e 	bne	r2,zero,40003138 <__cxa_call_unexpected+0x164>
40003124:	d9001417 	ldw	r4,80(sp)
40003128:	00034ec0 	call	400034ec <_ZN10__cxxabiv111__terminateEPFvvE>
4000312c:	10801004 	addi	r2,r2,64
40003130:	d8801715 	stw	r2,92(sp)
40003134:	003fe106 	br	400030bc <__alt_data_end+0xc00030bc>
40003138:	01000104 	movi	r4,4
4000313c:	0003df00 	call	40003df0 <__cxa_allocate_exception>
40003140:	00d00074 	movhi	r3,16385
40003144:	18d37104 	addi	r3,r3,19908
40003148:	01500074 	movhi	r5,16385
4000314c:	01900034 	movhi	r6,16384
40003150:	10c00015 	stw	r3,0(r2)
40003154:	29535604 	addi	r5,r5,19800
40003158:	00c00084 	movi	r3,2
4000315c:	318fec04 	addi	r6,r6,16304
40003160:	1009883a 	mov	r4,r2
40003164:	d8c00815 	stw	r3,32(sp)
40003168:	0003c780 	call	40003c78 <__cxa_throw>
4000316c:	0003d080 	call	40003d08 <__cxa_rethrow>
40003170:	d9401617 	ldw	r5,88(sp)
40003174:	00800084 	movi	r2,2
40003178:	0009883a 	mov	r4,zero
4000317c:	d9800104 	addi	r6,sp,4
40003180:	d8800815 	stw	r2,32(sp)
40003184:	00029a00 	call	400029a0 <_ZL17parse_lsda_headerP15_Unwind_ContextPKhP16lsda_header_info>
40003188:	d8801717 	ldw	r2,92(sp)
4000318c:	d9c01517 	ldw	r7,84(sp)
40003190:	d9000104 	addi	r4,sp,4
40003194:	117ff017 	ldw	r5,-64(r2)
40003198:	100d883a 	mov	r6,r2
4000319c:	00026a00 	call	400026a0 <_ZL20check_exception_specP16lsda_header_infoPKSt9type_infoPvl>
400031a0:	10803fcc 	andi	r2,r2,255
400031a4:	1000171e 	bne	r2,zero,40003204 <__cxa_call_unexpected+0x230>
400031a8:	d9c01517 	ldw	r7,84(sp)
400031ac:	01500074 	movhi	r5,16385
400031b0:	00800084 	movi	r2,2
400031b4:	29535604 	addi	r5,r5,19800
400031b8:	d9000104 	addi	r4,sp,4
400031bc:	000d883a 	mov	r6,zero
400031c0:	d8800815 	stw	r2,32(sp)
400031c4:	00026a00 	call	400026a0 <_ZL20check_exception_specP16lsda_header_infoPKSt9type_infoPvl>
400031c8:	10803fcc 	andi	r2,r2,255
400031cc:	103fd526 	beq	r2,zero,40003124 <__alt_data_end+0xc0003124>
400031d0:	01000104 	movi	r4,4
400031d4:	0003df00 	call	40003df0 <__cxa_allocate_exception>
400031d8:	00d00074 	movhi	r3,16385
400031dc:	18d37104 	addi	r3,r3,19908
400031e0:	01500074 	movhi	r5,16385
400031e4:	01900034 	movhi	r6,16384
400031e8:	10c00015 	stw	r3,0(r2)
400031ec:	29535604 	addi	r5,r5,19800
400031f0:	00c00084 	movi	r3,2
400031f4:	318fec04 	addi	r6,r6,16304
400031f8:	1009883a 	mov	r4,r2
400031fc:	d8c00815 	stw	r3,32(sp)
40003200:	0003c780 	call	40003c78 <__cxa_throw>
40003204:	0003d080 	call	40003d08 <__cxa_rethrow>

40003208 <__cxa_get_globals_fast>:
40003208:	009000b4 	movhi	r2,16386
4000320c:	10a21604 	addi	r2,r2,-30632
40003210:	f800283a 	ret

40003214 <__cxa_get_globals>:
40003214:	009000b4 	movhi	r2,16386
40003218:	10a21604 	addi	r2,r2,-30632
4000321c:	f800283a 	ret

40003220 <_ZNK10__cxxabiv117__class_type_info11__do_upcastEPKS0_PPv>:
40003220:	20800017 	ldw	r2,0(r4)
40003224:	defffa04 	addi	sp,sp,-24
40003228:	dc000415 	stw	r16,16(sp)
4000322c:	10800617 	ldw	r2,24(r2)
40003230:	3021883a 	mov	r16,r6
40003234:	31800017 	ldw	r6,0(r6)
40003238:	00c00404 	movi	r3,16
4000323c:	d8c00215 	stw	r3,8(sp)
40003240:	dfc00515 	stw	ra,20(sp)
40003244:	d8000015 	stw	zero,0(sp)
40003248:	d8000115 	stw	zero,4(sp)
4000324c:	d8000315 	stw	zero,12(sp)
40003250:	d80f883a 	mov	r7,sp
40003254:	103ee83a 	callr	r2
40003258:	d8800117 	ldw	r2,4(sp)
4000325c:	00c00184 	movi	r3,6
40003260:	1080018c 	andi	r2,r2,6
40003264:	10c00526 	beq	r2,r3,4000327c <_ZNK10__cxxabiv117__class_type_info11__do_upcastEPKS0_PPv+0x5c>
40003268:	0005883a 	mov	r2,zero
4000326c:	dfc00517 	ldw	ra,20(sp)
40003270:	dc000417 	ldw	r16,16(sp)
40003274:	dec00604 	addi	sp,sp,24
40003278:	f800283a 	ret
4000327c:	d8c00017 	ldw	r3,0(sp)
40003280:	00800044 	movi	r2,1
40003284:	80c00015 	stw	r3,0(r16)
40003288:	dfc00517 	ldw	ra,20(sp)
4000328c:	dc000417 	ldw	r16,16(sp)
40003290:	dec00604 	addi	sp,sp,24
40003294:	f800283a 	ret

40003298 <_ZNK10__cxxabiv117__class_type_info20__do_find_public_srcEiPKvPKS0_S2_>:
40003298:	d8800017 	ldw	r2,0(sp)
4000329c:	11800226 	beq	r2,r6,400032a8 <_ZNK10__cxxabiv117__class_type_info20__do_find_public_srcEiPKvPKS0_S2_+0x10>
400032a0:	00800044 	movi	r2,1
400032a4:	f800283a 	ret
400032a8:	00800184 	movi	r2,6
400032ac:	f800283a 	ret

400032b0 <_ZN10__cxxabiv117__class_type_infoD1Ev>:
400032b0:	00900074 	movhi	r2,16385
400032b4:	10930704 	addi	r2,r2,19484
400032b8:	20800015 	stw	r2,0(r4)
400032bc:	0003d8c1 	jmpi	40003d8c <_ZNSt9type_infoD1Ev>

400032c0 <_ZN10__cxxabiv117__class_type_infoD0Ev>:
400032c0:	defffe04 	addi	sp,sp,-8
400032c4:	00900074 	movhi	r2,16385
400032c8:	dc000015 	stw	r16,0(sp)
400032cc:	dfc00115 	stw	ra,4(sp)
400032d0:	10930704 	addi	r2,r2,19484
400032d4:	20800015 	stw	r2,0(r4)
400032d8:	2021883a 	mov	r16,r4
400032dc:	0003d8c0 	call	40003d8c <_ZNSt9type_infoD1Ev>
400032e0:	8009883a 	mov	r4,r16
400032e4:	dfc00117 	ldw	ra,4(sp)
400032e8:	dc000017 	ldw	r16,0(sp)
400032ec:	dec00204 	addi	sp,sp,8
400032f0:	00034e81 	jmpi	400034e8 <_ZdlPv>

400032f4 <_ZNK10__cxxabiv117__class_type_info11__do_upcastEPKS0_PKvRNS0_15__upcast_resultE>:
400032f4:	21000117 	ldw	r4,4(r4)
400032f8:	29400117 	ldw	r5,4(r5)
400032fc:	defffd04 	addi	sp,sp,-12
40003300:	dc400115 	stw	r17,4(sp)
40003304:	dc000015 	stw	r16,0(sp)
40003308:	dfc00215 	stw	ra,8(sp)
4000330c:	3023883a 	mov	r17,r6
40003310:	3821883a 	mov	r16,r7
40003314:	21400b26 	beq	r4,r5,40003344 <_ZNK10__cxxabiv117__class_type_info11__do_upcastEPKS0_PKvRNS0_15__upcast_resultE+0x50>
40003318:	20c00007 	ldb	r3,0(r4)
4000331c:	00800a84 	movi	r2,42
40003320:	18800226 	beq	r3,r2,4000332c <_ZNK10__cxxabiv117__class_type_info11__do_upcastEPKS0_PKvRNS0_15__upcast_resultE+0x38>
40003324:	0008d480 	call	40008d48 <strcmp>
40003328:	10000626 	beq	r2,zero,40003344 <_ZNK10__cxxabiv117__class_type_info11__do_upcastEPKS0_PKvRNS0_15__upcast_resultE+0x50>
4000332c:	0005883a 	mov	r2,zero
40003330:	dfc00217 	ldw	ra,8(sp)
40003334:	dc400117 	ldw	r17,4(sp)
40003338:	dc000017 	ldw	r16,0(sp)
4000333c:	dec00304 	addi	sp,sp,12
40003340:	f800283a 	ret
40003344:	00800204 	movi	r2,8
40003348:	80800315 	stw	r2,12(r16)
4000334c:	00800184 	movi	r2,6
40003350:	80800115 	stw	r2,4(r16)
40003354:	84400015 	stw	r17,0(r16)
40003358:	00800044 	movi	r2,1
4000335c:	003ff406 	br	40003330 <__alt_data_end+0xc0003330>

40003360 <_ZNK10__cxxabiv117__class_type_info10__do_catchEPKSt9type_infoPPvj>:
40003360:	20800117 	ldw	r2,4(r4)
40003364:	28c00117 	ldw	r3,4(r5)
40003368:	10c02926 	beq	r2,r3,40003410 <_ZNK10__cxxabiv117__class_type_info10__do_catchEPKSt9type_infoPPvj+0xb0>
4000336c:	defffb04 	addi	sp,sp,-20
40003370:	dcc00315 	stw	r19,12(sp)
40003374:	dc800215 	stw	r18,8(sp)
40003378:	dc400115 	stw	r17,4(sp)
4000337c:	dc000015 	stw	r16,0(sp)
40003380:	dfc00415 	stw	ra,16(sp)
40003384:	2821883a 	mov	r16,r5
40003388:	11400007 	ldb	r5,0(r2)
4000338c:	2025883a 	mov	r18,r4
40003390:	01000a84 	movi	r4,42
40003394:	3823883a 	mov	r17,r7
40003398:	3027883a 	mov	r19,r6
4000339c:	29000426 	beq	r5,r4,400033b0 <_ZNK10__cxxabiv117__class_type_info10__do_catchEPKSt9type_infoPPvj+0x50>
400033a0:	1009883a 	mov	r4,r2
400033a4:	180b883a 	mov	r5,r3
400033a8:	0008d480 	call	40008d48 <strcmp>
400033ac:	10000a26 	beq	r2,zero,400033d8 <_ZNK10__cxxabiv117__class_type_info10__do_catchEPKSt9type_infoPPvj+0x78>
400033b0:	008000c4 	movi	r2,3
400033b4:	14400a2e 	bgeu	r2,r17,400033e0 <_ZNK10__cxxabiv117__class_type_info10__do_catchEPKSt9type_infoPPvj+0x80>
400033b8:	0005883a 	mov	r2,zero
400033bc:	dfc00417 	ldw	ra,16(sp)
400033c0:	dcc00317 	ldw	r19,12(sp)
400033c4:	dc800217 	ldw	r18,8(sp)
400033c8:	dc400117 	ldw	r17,4(sp)
400033cc:	dc000017 	ldw	r16,0(sp)
400033d0:	dec00504 	addi	sp,sp,20
400033d4:	f800283a 	ret
400033d8:	00800044 	movi	r2,1
400033dc:	003ff706 	br	400033bc <__alt_data_end+0xc00033bc>
400033e0:	80800017 	ldw	r2,0(r16)
400033e4:	8009883a 	mov	r4,r16
400033e8:	900b883a 	mov	r5,r18
400033ec:	10800517 	ldw	r2,20(r2)
400033f0:	980d883a 	mov	r6,r19
400033f4:	dfc00417 	ldw	ra,16(sp)
400033f8:	dcc00317 	ldw	r19,12(sp)
400033fc:	dc800217 	ldw	r18,8(sp)
40003400:	dc400117 	ldw	r17,4(sp)
40003404:	dc000017 	ldw	r16,0(sp)
40003408:	dec00504 	addi	sp,sp,20
4000340c:	1000683a 	jmp	r2
40003410:	00800044 	movi	r2,1
40003414:	f800283a 	ret

40003418 <_ZNK10__cxxabiv117__class_type_info12__do_dyncastEiNS0_10__sub_kindEPKS0_PKvS3_S5_RNS0_16__dyncast_resultE>:
40003418:	defffb04 	addi	sp,sp,-20
4000341c:	dc400315 	stw	r17,12(sp)
40003420:	d8800717 	ldw	r2,28(sp)
40003424:	dc400517 	ldw	r17,20(sp)
40003428:	dc000215 	stw	r16,8(sp)
4000342c:	dfc00415 	stw	ra,16(sp)
40003430:	24000117 	ldw	r16,4(r4)
40003434:	88801026 	beq	r17,r2,40003478 <_ZNK10__cxxabiv117__class_type_info12__do_dyncastEiNS0_10__sub_kindEPKS0_PKvS3_S5_RNS0_16__dyncast_resultE+0x60>
40003438:	39400117 	ldw	r5,4(r7)
4000343c:	81401d26 	beq	r16,r5,400034b4 <_ZNK10__cxxabiv117__class_type_info12__do_dyncastEiNS0_10__sub_kindEPKS0_PKvS3_S5_RNS0_16__dyncast_resultE+0x9c>
40003440:	80c00007 	ldb	r3,0(r16)
40003444:	00800a84 	movi	r2,42
40003448:	18800526 	beq	r3,r2,40003460 <_ZNK10__cxxabiv117__class_type_info12__do_dyncastEiNS0_10__sub_kindEPKS0_PKvS3_S5_RNS0_16__dyncast_resultE+0x48>
4000344c:	8009883a 	mov	r4,r16
40003450:	d9800115 	stw	r6,4(sp)
40003454:	0008d480 	call	40008d48 <strcmp>
40003458:	d9800117 	ldw	r6,4(sp)
4000345c:	10001526 	beq	r2,zero,400034b4 <_ZNK10__cxxabiv117__class_type_info12__do_dyncastEiNS0_10__sub_kindEPKS0_PKvS3_S5_RNS0_16__dyncast_resultE+0x9c>
40003460:	0005883a 	mov	r2,zero
40003464:	dfc00417 	ldw	ra,16(sp)
40003468:	dc400317 	ldw	r17,12(sp)
4000346c:	dc000217 	ldw	r16,8(sp)
40003470:	dec00504 	addi	sp,sp,20
40003474:	f800283a 	ret
40003478:	d8800617 	ldw	r2,24(sp)
4000347c:	11400117 	ldw	r5,4(r2)
40003480:	81401326 	beq	r16,r5,400034d0 <_ZNK10__cxxabiv117__class_type_info12__do_dyncastEiNS0_10__sub_kindEPKS0_PKvS3_S5_RNS0_16__dyncast_resultE+0xb8>
40003484:	80c00007 	ldb	r3,0(r16)
40003488:	00800a84 	movi	r2,42
4000348c:	18801326 	beq	r3,r2,400034dc <_ZNK10__cxxabiv117__class_type_info12__do_dyncastEiNS0_10__sub_kindEPKS0_PKvS3_S5_RNS0_16__dyncast_resultE+0xc4>
40003490:	8009883a 	mov	r4,r16
40003494:	d9800115 	stw	r6,4(sp)
40003498:	d9c00015 	stw	r7,0(sp)
4000349c:	0008d480 	call	40008d48 <strcmp>
400034a0:	d9800117 	ldw	r6,4(sp)
400034a4:	d9c00017 	ldw	r7,0(sp)
400034a8:	10000926 	beq	r2,zero,400034d0 <_ZNK10__cxxabiv117__class_type_info12__do_dyncastEiNS0_10__sub_kindEPKS0_PKvS3_S5_RNS0_16__dyncast_resultE+0xb8>
400034ac:	39400117 	ldw	r5,4(r7)
400034b0:	817fe61e 	bne	r16,r5,4000344c <__alt_data_end+0xc000344c>
400034b4:	d8800817 	ldw	r2,32(sp)
400034b8:	d8c00817 	ldw	r3,32(sp)
400034bc:	14400015 	stw	r17,0(r2)
400034c0:	11800115 	stw	r6,4(r2)
400034c4:	00800044 	movi	r2,1
400034c8:	18800315 	stw	r2,12(r3)
400034cc:	003fe406 	br	40003460 <__alt_data_end+0xc0003460>
400034d0:	d8800817 	ldw	r2,32(sp)
400034d4:	11800215 	stw	r6,8(r2)
400034d8:	003fe106 	br	40003460 <__alt_data_end+0xc0003460>
400034dc:	38800117 	ldw	r2,4(r7)
400034e0:	80bfdf1e 	bne	r16,r2,40003460 <__alt_data_end+0xc0003460>
400034e4:	003ff306 	br	400034b4 <__alt_data_end+0xc00034b4>

400034e8 <_ZdlPv>:
400034e8:	0007f441 	jmpi	40007f44 <free>

400034ec <_ZN10__cxxabiv111__terminateEPFvvE>:
400034ec:	00900034 	movhi	r2,16384
400034f0:	deffef04 	addi	sp,sp,-68
400034f4:	108ab504 	addi	r2,r2,10964
400034f8:	d8800615 	stw	r2,24(sp)
400034fc:	00900074 	movhi	r2,16385
40003500:	1092a404 	addi	r2,r2,19088
40003504:	d8800715 	stw	r2,28(sp)
40003508:	00900034 	movhi	r2,16384
4000350c:	108d5104 	addi	r2,r2,13636
40003510:	d9000d15 	stw	r4,52(sp)
40003514:	d809883a 	mov	r4,sp
40003518:	d8800915 	stw	r2,36(sp)
4000351c:	dfc01015 	stw	ra,64(sp)
40003520:	df000f15 	stw	fp,60(sp)
40003524:	dec00815 	stw	sp,32(sp)
40003528:	dec00a15 	stw	sp,40(sp)
4000352c:	0007b540 	call	40007b54 <_Unwind_SjLj_Register>
40003530:	00800044 	movi	r2,1
40003534:	d8800115 	stw	r2,4(sp)
40003538:	d8800d17 	ldw	r2,52(sp)
4000353c:	103ee83a 	callr	r2
40003540:	0007ed00 	call	40007ed0 <abort>
40003544:	d8c00217 	ldw	r3,8(sp)
40003548:	d8800117 	ldw	r2,4(sp)
4000354c:	d8c00d15 	stw	r3,52(sp)
40003550:	d8c00317 	ldw	r3,12(sp)
40003554:	d8c00e15 	stw	r3,56(sp)
40003558:	10000b26 	beq	r2,zero,40003588 <_ZN10__cxxabiv111__terminateEPFvvE+0x9c>
4000355c:	10bfffc4 	addi	r2,r2,-1
40003560:	10000126 	beq	r2,zero,40003568 <_ZN10__cxxabiv111__terminateEPFvvE+0x7c>
40003564:	003da0fa 	break	3
40003568:	d8000115 	stw	zero,4(sp)
4000356c:	0003a740 	call	40003a74 <__cxa_end_catch>
40003570:	d8c00e17 	ldw	r3,56(sp)
40003574:	00bfffc4 	movi	r2,-1
40003578:	18800826 	beq	r3,r2,4000359c <_ZN10__cxxabiv111__terminateEPFvvE+0xb0>
4000357c:	d9000d17 	ldw	r4,52(sp)
40003580:	d8800115 	stw	r2,4(sp)
40003584:	0007d500 	call	40007d50 <_Unwind_SjLj_Resume>
40003588:	d9000d17 	ldw	r4,52(sp)
4000358c:	00039c00 	call	400039c0 <__cxa_begin_catch>
40003590:	00800084 	movi	r2,2
40003594:	d8800115 	stw	r2,4(sp)
40003598:	0007ed00 	call	40007ed0 <abort>
4000359c:	d8800e17 	ldw	r2,56(sp)
400035a0:	d9000d17 	ldw	r4,52(sp)
400035a4:	d8800115 	stw	r2,4(sp)
400035a8:	0002fd40 	call	40002fd4 <__cxa_call_unexpected>

400035ac <_ZSt9terminatev>:
400035ac:	00900074 	movhi	r2,16385
400035b0:	109b0004 	addi	r2,r2,27648
400035b4:	11000017 	ldw	r4,0(r2)
400035b8:	deffff04 	addi	sp,sp,-4
400035bc:	dfc00015 	stw	ra,0(sp)
400035c0:	00034ec0 	call	400034ec <_ZN10__cxxabiv111__terminateEPFvvE>

400035c4 <_ZN10__cxxabiv112__unexpectedEPFvvE>:
400035c4:	deffff04 	addi	sp,sp,-4
400035c8:	dfc00015 	stw	ra,0(sp)
400035cc:	203ee83a 	callr	r4
400035d0:	00035ac0 	call	400035ac <_ZSt9terminatev>

400035d4 <_ZSt10unexpectedv>:
400035d4:	00900074 	movhi	r2,16385
400035d8:	109b0a04 	addi	r2,r2,27688
400035dc:	11000017 	ldw	r4,0(r2)
400035e0:	deffff04 	addi	sp,sp,-4
400035e4:	dfc00015 	stw	ra,0(sp)
400035e8:	00035c40 	call	400035c4 <_ZN10__cxxabiv112__unexpectedEPFvvE>

400035ec <_ZSt13set_terminatePFvvE>:
400035ec:	00d00074 	movhi	r3,16385
400035f0:	18db0004 	addi	r3,r3,27648
400035f4:	18800017 	ldw	r2,0(r3)
400035f8:	19000015 	stw	r4,0(r3)
400035fc:	f800283a 	ret

40003600 <_ZSt13get_terminatev>:
40003600:	00900074 	movhi	r2,16385
40003604:	109b0004 	addi	r2,r2,27648
40003608:	10800017 	ldw	r2,0(r2)
4000360c:	f800283a 	ret

40003610 <_ZSt14set_unexpectedPFvvE>:
40003610:	00d00074 	movhi	r3,16385
40003614:	18db0a04 	addi	r3,r3,27688
40003618:	18800017 	ldw	r2,0(r3)
4000361c:	19000015 	stw	r4,0(r3)
40003620:	f800283a 	ret

40003624 <_ZSt14get_unexpectedv>:
40003624:	00900074 	movhi	r2,16385
40003628:	109b0a04 	addi	r2,r2,27688
4000362c:	10800017 	ldw	r2,0(r2)
40003630:	f800283a 	ret

40003634 <_ZN10__cxxabiv120__si_class_type_infoD1Ev>:
40003634:	00900074 	movhi	r2,16385
40003638:	10931f04 	addi	r2,r2,19580
4000363c:	20800015 	stw	r2,0(r4)
40003640:	00032b01 	jmpi	400032b0 <_ZN10__cxxabiv117__class_type_infoD1Ev>

40003644 <_ZN10__cxxabiv120__si_class_type_infoD0Ev>:
40003644:	defffe04 	addi	sp,sp,-8
40003648:	00900074 	movhi	r2,16385
4000364c:	dc000015 	stw	r16,0(sp)
40003650:	dfc00115 	stw	ra,4(sp)
40003654:	10931f04 	addi	r2,r2,19580
40003658:	20800015 	stw	r2,0(r4)
4000365c:	2021883a 	mov	r16,r4
40003660:	00032b00 	call	400032b0 <_ZN10__cxxabiv117__class_type_infoD1Ev>
40003664:	8009883a 	mov	r4,r16
40003668:	dfc00117 	ldw	ra,4(sp)
4000366c:	dc000017 	ldw	r16,0(sp)
40003670:	dec00204 	addi	sp,sp,8
40003674:	00034e81 	jmpi	400034e8 <_ZdlPv>

40003678 <_ZNK10__cxxabiv120__si_class_type_info12__do_dyncastEiNS_17__class_type_info10__sub_kindEPKS1_PKvS4_S6_RNS1_16__dyncast_resultE>:
40003678:	defff504 	addi	sp,sp,-44
4000367c:	dc000115 	stw	r16,4(sp)
40003680:	38800117 	ldw	r2,4(r7)
40003684:	24000117 	ldw	r16,4(r4)
40003688:	ddc00815 	stw	r23,32(sp)
4000368c:	dd800715 	stw	r22,28(sp)
40003690:	dd400615 	stw	r21,24(sp)
40003694:	dd000515 	stw	r20,20(sp)
40003698:	dcc00415 	stw	r19,16(sp)
4000369c:	dc800315 	stw	r18,12(sp)
400036a0:	dc400215 	stw	r17,8(sp)
400036a4:	dfc00a15 	stw	ra,40(sp)
400036a8:	df000915 	stw	fp,36(sp)
400036ac:	202b883a 	mov	r21,r4
400036b0:	382d883a 	mov	r22,r7
400036b4:	2823883a 	mov	r17,r5
400036b8:	dc800b17 	ldw	r18,44(sp)
400036bc:	ddc00c17 	ldw	r23,48(sp)
400036c0:	dd000d17 	ldw	r20,52(sp)
400036c4:	dcc00e17 	ldw	r19,56(sp)
400036c8:	80801f26 	beq	r16,r2,40003748 <_ZNK10__cxxabiv120__si_class_type_info12__do_dyncastEiNS_17__class_type_info10__sub_kindEPKS1_PKvS4_S6_RNS1_16__dyncast_resultE+0xd0>
400036cc:	87000007 	ldb	fp,0(r16)
400036d0:	00c00a84 	movi	r3,42
400036d4:	e0c00626 	beq	fp,r3,400036f0 <_ZNK10__cxxabiv120__si_class_type_info12__do_dyncastEiNS_17__class_type_info10__sub_kindEPKS1_PKvS4_S6_RNS1_16__dyncast_resultE+0x78>
400036d8:	8009883a 	mov	r4,r16
400036dc:	100b883a 	mov	r5,r2
400036e0:	d9800015 	stw	r6,0(sp)
400036e4:	0008d480 	call	40008d48 <strcmp>
400036e8:	d9800017 	ldw	r6,0(sp)
400036ec:	10001626 	beq	r2,zero,40003748 <_ZNK10__cxxabiv120__si_class_type_info12__do_dyncastEiNS_17__class_type_info10__sub_kindEPKS1_PKvS4_S6_RNS1_16__dyncast_resultE+0xd0>
400036f0:	95002c26 	beq	r18,r20,400037a4 <_ZNK10__cxxabiv120__si_class_type_info12__do_dyncastEiNS_17__class_type_info10__sub_kindEPKS1_PKvS4_S6_RNS1_16__dyncast_resultE+0x12c>
400036f4:	a9000217 	ldw	r4,8(r21)
400036f8:	880b883a 	mov	r5,r17
400036fc:	b00f883a 	mov	r7,r22
40003700:	20800017 	ldw	r2,0(r4)
40003704:	dc800b15 	stw	r18,44(sp)
40003708:	ddc00c15 	stw	r23,48(sp)
4000370c:	dd000d15 	stw	r20,52(sp)
40003710:	dcc00e15 	stw	r19,56(sp)
40003714:	10800717 	ldw	r2,28(r2)
40003718:	dfc00a17 	ldw	ra,40(sp)
4000371c:	df000917 	ldw	fp,36(sp)
40003720:	ddc00817 	ldw	r23,32(sp)
40003724:	dd800717 	ldw	r22,28(sp)
40003728:	dd400617 	ldw	r21,24(sp)
4000372c:	dd000517 	ldw	r20,20(sp)
40003730:	dcc00417 	ldw	r19,16(sp)
40003734:	dc800317 	ldw	r18,12(sp)
40003738:	dc400217 	ldw	r17,8(sp)
4000373c:	dc000117 	ldw	r16,4(sp)
40003740:	dec00b04 	addi	sp,sp,44
40003744:	1000683a 	jmp	r2
40003748:	9c800015 	stw	r18,0(r19)
4000374c:	99800115 	stw	r6,4(r19)
40003750:	88001116 	blt	r17,zero,40003798 <_ZNK10__cxxabiv120__si_class_type_info12__do_dyncastEiNS_17__class_type_info10__sub_kindEPKS1_PKvS4_S6_RNS1_16__dyncast_resultE+0x120>
40003754:	9463883a 	add	r17,r18,r17
40003758:	a4401d26 	beq	r20,r17,400037d0 <_ZNK10__cxxabiv120__si_class_type_info12__do_dyncastEiNS_17__class_type_info10__sub_kindEPKS1_PKvS4_S6_RNS1_16__dyncast_resultE+0x158>
4000375c:	00800044 	movi	r2,1
40003760:	98800315 	stw	r2,12(r19)
40003764:	0005883a 	mov	r2,zero
40003768:	dfc00a17 	ldw	ra,40(sp)
4000376c:	df000917 	ldw	fp,36(sp)
40003770:	ddc00817 	ldw	r23,32(sp)
40003774:	dd800717 	ldw	r22,28(sp)
40003778:	dd400617 	ldw	r21,24(sp)
4000377c:	dd000517 	ldw	r20,20(sp)
40003780:	dcc00417 	ldw	r19,16(sp)
40003784:	dc800317 	ldw	r18,12(sp)
40003788:	dc400217 	ldw	r17,8(sp)
4000378c:	dc000117 	ldw	r16,4(sp)
40003790:	dec00b04 	addi	sp,sp,44
40003794:	f800283a 	ret
40003798:	00bfff84 	movi	r2,-2
4000379c:	88bff11e 	bne	r17,r2,40003764 <__alt_data_end+0xc0003764>
400037a0:	003fee06 	br	4000375c <__alt_data_end+0xc000375c>
400037a4:	b9400117 	ldw	r5,4(r23)
400037a8:	81400726 	beq	r16,r5,400037c8 <_ZNK10__cxxabiv120__si_class_type_info12__do_dyncastEiNS_17__class_type_info10__sub_kindEPKS1_PKvS4_S6_RNS1_16__dyncast_resultE+0x150>
400037ac:	00800a84 	movi	r2,42
400037b0:	e0bfd026 	beq	fp,r2,400036f4 <__alt_data_end+0xc00036f4>
400037b4:	8009883a 	mov	r4,r16
400037b8:	d9800015 	stw	r6,0(sp)
400037bc:	0008d480 	call	40008d48 <strcmp>
400037c0:	d9800017 	ldw	r6,0(sp)
400037c4:	103fcb1e 	bne	r2,zero,400036f4 <__alt_data_end+0xc00036f4>
400037c8:	99800215 	stw	r6,8(r19)
400037cc:	003fe506 	br	40003764 <__alt_data_end+0xc0003764>
400037d0:	00800184 	movi	r2,6
400037d4:	003fe206 	br	40003760 <__alt_data_end+0xc0003760>

400037d8 <_ZNK10__cxxabiv120__si_class_type_info20__do_find_public_srcEiPKvPKNS_17__class_type_infoES2_>:
400037d8:	defffa04 	addi	sp,sp,-24
400037dc:	dc000215 	stw	r16,8(sp)
400037e0:	dc000617 	ldw	r16,24(sp)
400037e4:	dc800415 	stw	r18,16(sp)
400037e8:	dc400315 	stw	r17,12(sp)
400037ec:	dfc00515 	stw	ra,20(sp)
400037f0:	2023883a 	mov	r17,r4
400037f4:	2825883a 	mov	r18,r5
400037f8:	81800b26 	beq	r16,r6,40003828 <_ZNK10__cxxabiv120__si_class_type_info20__do_find_public_srcEiPKvPKNS_17__class_type_infoES2_+0x50>
400037fc:	89000217 	ldw	r4,8(r17)
40003800:	900b883a 	mov	r5,r18
40003804:	20800017 	ldw	r2,0(r4)
40003808:	dc000615 	stw	r16,24(sp)
4000380c:	10800817 	ldw	r2,32(r2)
40003810:	dfc00517 	ldw	ra,20(sp)
40003814:	dc800417 	ldw	r18,16(sp)
40003818:	dc400317 	ldw	r17,12(sp)
4000381c:	dc000217 	ldw	r16,8(sp)
40003820:	dec00604 	addi	sp,sp,24
40003824:	1000683a 	jmp	r2
40003828:	21000117 	ldw	r4,4(r4)
4000382c:	39400117 	ldw	r5,4(r7)
40003830:	21400926 	beq	r4,r5,40003858 <_ZNK10__cxxabiv120__si_class_type_info20__do_find_public_srcEiPKvPKNS_17__class_type_infoES2_+0x80>
40003834:	20c00007 	ldb	r3,0(r4)
40003838:	00800a84 	movi	r2,42
4000383c:	18bfef26 	beq	r3,r2,400037fc <__alt_data_end+0xc00037fc>
40003840:	d9800015 	stw	r6,0(sp)
40003844:	d9c00115 	stw	r7,4(sp)
40003848:	0008d480 	call	40008d48 <strcmp>
4000384c:	d9800017 	ldw	r6,0(sp)
40003850:	d9c00117 	ldw	r7,4(sp)
40003854:	103fe91e 	bne	r2,zero,400037fc <__alt_data_end+0xc00037fc>
40003858:	00800184 	movi	r2,6
4000385c:	dfc00517 	ldw	ra,20(sp)
40003860:	dc800417 	ldw	r18,16(sp)
40003864:	dc400317 	ldw	r17,12(sp)
40003868:	dc000217 	ldw	r16,8(sp)
4000386c:	dec00604 	addi	sp,sp,24
40003870:	f800283a 	ret

40003874 <_ZNK10__cxxabiv120__si_class_type_info11__do_upcastEPKNS_17__class_type_infoEPKvRNS1_15__upcast_resultE>:
40003874:	defffb04 	addi	sp,sp,-20
40003878:	dcc00315 	stw	r19,12(sp)
4000387c:	dc800215 	stw	r18,8(sp)
40003880:	dc400115 	stw	r17,4(sp)
40003884:	dc000015 	stw	r16,0(sp)
40003888:	dfc00415 	stw	ra,16(sp)
4000388c:	2027883a 	mov	r19,r4
40003890:	2825883a 	mov	r18,r5
40003894:	3023883a 	mov	r17,r6
40003898:	3821883a 	mov	r16,r7
4000389c:	00032f40 	call	400032f4 <_ZNK10__cxxabiv117__class_type_info11__do_upcastEPKS0_PKvRNS0_15__upcast_resultE>
400038a0:	10c03fcc 	andi	r3,r2,255
400038a4:	18000726 	beq	r3,zero,400038c4 <_ZNK10__cxxabiv120__si_class_type_info11__do_upcastEPKNS_17__class_type_infoEPKvRNS1_15__upcast_resultE+0x50>
400038a8:	dfc00417 	ldw	ra,16(sp)
400038ac:	dcc00317 	ldw	r19,12(sp)
400038b0:	dc800217 	ldw	r18,8(sp)
400038b4:	dc400117 	ldw	r17,4(sp)
400038b8:	dc000017 	ldw	r16,0(sp)
400038bc:	dec00504 	addi	sp,sp,20
400038c0:	f800283a 	ret
400038c4:	99000217 	ldw	r4,8(r19)
400038c8:	900b883a 	mov	r5,r18
400038cc:	880d883a 	mov	r6,r17
400038d0:	20800017 	ldw	r2,0(r4)
400038d4:	800f883a 	mov	r7,r16
400038d8:	10800617 	ldw	r2,24(r2)
400038dc:	dfc00417 	ldw	ra,16(sp)
400038e0:	dcc00317 	ldw	r19,12(sp)
400038e4:	dc800217 	ldw	r18,8(sp)
400038e8:	dc400117 	ldw	r17,4(sp)
400038ec:	dc000017 	ldw	r16,0(sp)
400038f0:	dec00504 	addi	sp,sp,20
400038f4:	1000683a 	jmp	r2

400038f8 <_Znwj>:
400038f8:	defffe04 	addi	sp,sp,-8
400038fc:	dc000015 	stw	r16,0(sp)
40003900:	dfc00115 	stw	ra,4(sp)
40003904:	2021883a 	mov	r16,r4
40003908:	2000051e 	bne	r4,zero,40003920 <_Znwj+0x28>
4000390c:	04000044 	movi	r16,1
40003910:	00000306 	br	40003920 <_Znwj+0x28>
40003914:	0003ff80 	call	40003ff8 <_ZSt15get_new_handlerv>
40003918:	10000826 	beq	r2,zero,4000393c <_Znwj+0x44>
4000391c:	103ee83a 	callr	r2
40003920:	8009883a 	mov	r4,r16
40003924:	0007f300 	call	40007f30 <malloc>
40003928:	103ffa26 	beq	r2,zero,40003914 <__alt_data_end+0xc0003914>
4000392c:	dfc00117 	ldw	ra,4(sp)
40003930:	dc000017 	ldw	r16,0(sp)
40003934:	dec00204 	addi	sp,sp,8
40003938:	f800283a 	ret
4000393c:	01000104 	movi	r4,4
40003940:	0003df00 	call	40003df0 <__cxa_allocate_exception>
40003944:	00d00074 	movhi	r3,16385
40003948:	01500074 	movhi	r5,16385
4000394c:	01900034 	movhi	r6,16384
40003950:	18d33504 	addi	r3,r3,19668
40003954:	29533004 	addi	r5,r5,19648
40003958:	318e5d04 	addi	r6,r6,14708
4000395c:	1009883a 	mov	r4,r2
40003960:	10c00015 	stw	r3,0(r2)
40003964:	0003c780 	call	40003c78 <__cxa_throw>

40003968 <_ZNKSt9bad_alloc4whatEv>:
40003968:	00900074 	movhi	r2,16385
4000396c:	10932804 	addi	r2,r2,19616
40003970:	f800283a 	ret

40003974 <_ZNSt9bad_allocD1Ev>:
40003974:	00900074 	movhi	r2,16385
40003978:	10933504 	addi	r2,r2,19668
4000397c:	20800015 	stw	r2,0(r4)
40003980:	0003fac1 	jmpi	40003fac <_ZNSt9exceptionD1Ev>

40003984 <_ZNSt9bad_allocD0Ev>:
40003984:	defffe04 	addi	sp,sp,-8
40003988:	00900074 	movhi	r2,16385
4000398c:	dc000015 	stw	r16,0(sp)
40003990:	dfc00115 	stw	ra,4(sp)
40003994:	10933504 	addi	r2,r2,19668
40003998:	20800015 	stw	r2,0(r4)
4000399c:	2021883a 	mov	r16,r4
400039a0:	0003fac0 	call	40003fac <_ZNSt9exceptionD1Ev>
400039a4:	8009883a 	mov	r4,r16
400039a8:	dfc00117 	ldw	ra,4(sp)
400039ac:	dc000017 	ldw	r16,0(sp)
400039b0:	dec00204 	addi	sp,sp,8
400039b4:	00034e81 	jmpi	400034e8 <_ZdlPv>

400039b8 <__cxa_get_exception_ptr>:
400039b8:	20bfff17 	ldw	r2,-4(r4)
400039bc:	f800283a 	ret

400039c0 <__cxa_begin_catch>:
400039c0:	defffe04 	addi	sp,sp,-8
400039c4:	dc000015 	stw	r16,0(sp)
400039c8:	dfc00115 	stw	ra,4(sp)
400039cc:	2021883a 	mov	r16,r4
400039d0:	00032140 	call	40003214 <__cxa_get_globals>
400039d4:	81000017 	ldw	r4,0(r16)
400039d8:	80c00117 	ldw	r3,4(r16)
400039dc:	01af3574 	movhi	r6,48341
400039e0:	31b54004 	addi	r6,r6,-11008
400039e4:	016e2cb4 	movhi	r5,47282
400039e8:	296aaf04 	addi	r5,r5,-21828
400039ec:	218d883a 	add	r6,r4,r6
400039f0:	3109803a 	cmpltu	r4,r6,r4
400039f4:	1947883a 	add	r3,r3,r5
400039f8:	20c7883a 	add	r3,r4,r3
400039fc:	817ff504 	addi	r5,r16,-44
40003a00:	11000017 	ldw	r4,0(r2)
40003a04:	18000726 	beq	r3,zero,40003a24 <__cxa_begin_catch+0x64>
40003a08:	2000191e 	bne	r4,zero,40003a70 <__cxa_begin_catch+0xb0>
40003a0c:	11400015 	stw	r5,0(r2)
40003a10:	0005883a 	mov	r2,zero
40003a14:	dfc00117 	ldw	ra,4(sp)
40003a18:	dc000017 	ldw	r16,0(sp)
40003a1c:	dec00204 	addi	sp,sp,8
40003a20:	f800283a 	ret
40003a24:	01c00044 	movi	r7,1
40003a28:	39bff736 	bltu	r7,r6,40003a08 <__alt_data_end+0xc0003a08>
40003a2c:	80fffa17 	ldw	r3,-24(r16)
40003a30:	18000d16 	blt	r3,zero,40003a68 <__cxa_begin_catch+0xa8>
40003a34:	18c00044 	addi	r3,r3,1
40003a38:	11800117 	ldw	r6,4(r2)
40003a3c:	80fffa15 	stw	r3,-24(r16)
40003a40:	30ffffc4 	addi	r3,r6,-1
40003a44:	10c00115 	stw	r3,4(r2)
40003a48:	21400226 	beq	r4,r5,40003a54 <__cxa_begin_catch+0x94>
40003a4c:	813ff915 	stw	r4,-28(r16)
40003a50:	11400015 	stw	r5,0(r2)
40003a54:	80bfff17 	ldw	r2,-4(r16)
40003a58:	dfc00117 	ldw	ra,4(sp)
40003a5c:	dc000017 	ldw	r16,0(sp)
40003a60:	dec00204 	addi	sp,sp,8
40003a64:	f800283a 	ret
40003a68:	38c7c83a 	sub	r3,r7,r3
40003a6c:	003ff206 	br	40003a38 <__alt_data_end+0xc0003a38>
40003a70:	00035ac0 	call	400035ac <_ZSt9terminatev>

40003a74 <__cxa_end_catch>:
40003a74:	deffff04 	addi	sp,sp,-4
40003a78:	dfc00015 	stw	ra,0(sp)
40003a7c:	00032080 	call	40003208 <__cxa_get_globals_fast>
40003a80:	11000017 	ldw	r4,0(r2)
40003a84:	20001326 	beq	r4,zero,40003ad4 <__cxa_end_catch+0x60>
40003a88:	21400b17 	ldw	r5,44(r4)
40003a8c:	01ef3574 	movhi	r7,48341
40003a90:	39f54004 	addi	r7,r7,-11008
40003a94:	29cf883a 	add	r7,r5,r7
40003a98:	20c00c17 	ldw	r3,48(r4)
40003a9c:	394d803a 	cmpltu	r6,r7,r5
40003aa0:	016e2cb4 	movhi	r5,47282
40003aa4:	296aaf04 	addi	r5,r5,-21828
40003aa8:	1947883a 	add	r3,r3,r5
40003aac:	30c7883a 	add	r3,r6,r3
40003ab0:	18000b1e 	bne	r3,zero,40003ae0 <__cxa_end_catch+0x6c>
40003ab4:	00c00044 	movi	r3,1
40003ab8:	19c00936 	bltu	r3,r7,40003ae0 <__cxa_end_catch+0x6c>
40003abc:	20c00517 	ldw	r3,20(r4)
40003ac0:	18000c16 	blt	r3,zero,40003af4 <__cxa_end_catch+0x80>
40003ac4:	197fffc4 	addi	r5,r3,-1
40003ac8:	28000f26 	beq	r5,zero,40003b08 <__cxa_end_catch+0x94>
40003acc:	18001426 	beq	r3,zero,40003b20 <__cxa_end_catch+0xac>
40003ad0:	21400515 	stw	r5,20(r4)
40003ad4:	dfc00017 	ldw	ra,0(sp)
40003ad8:	dec00104 	addi	sp,sp,4
40003adc:	f800283a 	ret
40003ae0:	21000b04 	addi	r4,r4,44
40003ae4:	10000015 	stw	zero,0(r2)
40003ae8:	dfc00017 	ldw	ra,0(sp)
40003aec:	dec00104 	addi	sp,sp,4
40003af0:	0007de01 	jmpi	40007de0 <_Unwind_DeleteException>
40003af4:	19400044 	addi	r5,r3,1
40003af8:	283ff51e 	bne	r5,zero,40003ad0 <__alt_data_end+0xc0003ad0>
40003afc:	20c00417 	ldw	r3,16(r4)
40003b00:	10c00015 	stw	r3,0(r2)
40003b04:	003ff206 	br	40003ad0 <__alt_data_end+0xc0003ad0>
40003b08:	20c00417 	ldw	r3,16(r4)
40003b0c:	21000b04 	addi	r4,r4,44
40003b10:	10c00015 	stw	r3,0(r2)
40003b14:	dfc00017 	ldw	ra,0(sp)
40003b18:	dec00104 	addi	sp,sp,4
40003b1c:	0007de01 	jmpi	40007de0 <_Unwind_DeleteException>
40003b20:	00035ac0 	call	400035ac <_ZSt9terminatev>

40003b24 <_ZSt18uncaught_exceptionv>:
40003b24:	deffff04 	addi	sp,sp,-4
40003b28:	dfc00015 	stw	ra,0(sp)
40003b2c:	00032140 	call	40003214 <__cxa_get_globals>
40003b30:	10800117 	ldw	r2,4(r2)
40003b34:	1004c03a 	cmpne	r2,r2,zero
40003b38:	dfc00017 	ldw	ra,0(sp)
40003b3c:	dec00104 	addi	sp,sp,4
40003b40:	f800283a 	ret

40003b44 <_Znaj>:
40003b44:	00900034 	movhi	r2,16384
40003b48:	defff004 	addi	sp,sp,-64
40003b4c:	108ab504 	addi	r2,r2,10964
40003b50:	d8800615 	stw	r2,24(sp)
40003b54:	00900074 	movhi	r2,16385
40003b58:	1092aa04 	addi	r2,r2,19112
40003b5c:	d8800715 	stw	r2,28(sp)
40003b60:	00900034 	movhi	r2,16384
40003b64:	108eee04 	addi	r2,r2,15288
40003b68:	d9000d15 	stw	r4,52(sp)
40003b6c:	d809883a 	mov	r4,sp
40003b70:	d8800915 	stw	r2,36(sp)
40003b74:	dfc00f15 	stw	ra,60(sp)
40003b78:	df000e15 	stw	fp,56(sp)
40003b7c:	dec00815 	stw	sp,32(sp)
40003b80:	dec00a15 	stw	sp,40(sp)
40003b84:	0007b540 	call	40007b54 <_Unwind_SjLj_Register>
40003b88:	d9000d17 	ldw	r4,52(sp)
40003b8c:	00800044 	movi	r2,1
40003b90:	d8800115 	stw	r2,4(sp)
40003b94:	00038f80 	call	400038f8 <_Znwj>
40003b98:	d809883a 	mov	r4,sp
40003b9c:	d8800d15 	stw	r2,52(sp)
40003ba0:	0007b6c0 	call	40007b6c <_Unwind_SjLj_Unregister>
40003ba4:	d8800d17 	ldw	r2,52(sp)
40003ba8:	dfc00f17 	ldw	ra,60(sp)
40003bac:	df000e17 	ldw	fp,56(sp)
40003bb0:	dec01004 	addi	sp,sp,64
40003bb4:	f800283a 	ret
40003bb8:	d8800317 	ldw	r2,12(sp)
40003bbc:	00ffffc4 	movi	r3,-1
40003bc0:	d9000217 	ldw	r4,8(sp)
40003bc4:	10c00226 	beq	r2,r3,40003bd0 <_Znaj+0x8c>
40003bc8:	d8c00115 	stw	r3,4(sp)
40003bcc:	0007d500 	call	40007d50 <_Unwind_SjLj_Resume>
40003bd0:	d8800115 	stw	r2,4(sp)
40003bd4:	0002fd40 	call	40002fd4 <__cxa_call_unexpected>

40003bd8 <__cxa_call_terminate>:
40003bd8:	defffe04 	addi	sp,sp,-8
40003bdc:	dc000015 	stw	r16,0(sp)
40003be0:	dfc00115 	stw	ra,4(sp)
40003be4:	2021883a 	mov	r16,r4
40003be8:	20000c26 	beq	r4,zero,40003c1c <__cxa_call_terminate+0x44>
40003bec:	00039c00 	call	400039c0 <__cxa_begin_catch>
40003bf0:	80c00017 	ldw	r3,0(r16)
40003bf4:	012f3574 	movhi	r4,48341
40003bf8:	21354004 	addi	r4,r4,-11008
40003bfc:	1909883a 	add	r4,r3,r4
40003c00:	80800117 	ldw	r2,4(r16)
40003c04:	20cb803a 	cmpltu	r5,r4,r3
40003c08:	00ee2cb4 	movhi	r3,47282
40003c0c:	18eaaf04 	addi	r3,r3,-21828
40003c10:	10c5883a 	add	r2,r2,r3
40003c14:	2885883a 	add	r2,r5,r2
40003c18:	10000126 	beq	r2,zero,40003c20 <__cxa_call_terminate+0x48>
40003c1c:	00035ac0 	call	400035ac <_ZSt9terminatev>
40003c20:	00800044 	movi	r2,1
40003c24:	113ffd36 	bltu	r2,r4,40003c1c <__alt_data_end+0xc0003c1c>
40003c28:	813ff817 	ldw	r4,-32(r16)
40003c2c:	00034ec0 	call	400034ec <_ZN10__cxxabiv111__terminateEPFvvE>

40003c30 <_ZdaPv>:
40003c30:	00034e81 	jmpi	400034e8 <_ZdlPv>

40003c34 <_ZL23__gxx_exception_cleanup19_Unwind_Reason_CodeP17_Unwind_Exception>:
40003c34:	defffe04 	addi	sp,sp,-8
40003c38:	dfc00115 	stw	ra,4(sp)
40003c3c:	dc000015 	stw	r16,0(sp)
40003c40:	00800044 	movi	r2,1
40003c44:	11000a36 	bltu	r2,r4,40003c70 <_ZL23__gxx_exception_cleanup19_Unwind_Reason_CodeP17_Unwind_Exception+0x3c>
40003c48:	28bff617 	ldw	r2,-40(r5)
40003c4c:	2c000504 	addi	r16,r5,20
40003c50:	10000226 	beq	r2,zero,40003c5c <_ZL23__gxx_exception_cleanup19_Unwind_Reason_CodeP17_Unwind_Exception+0x28>
40003c54:	8009883a 	mov	r4,r16
40003c58:	103ee83a 	callr	r2
40003c5c:	8009883a 	mov	r4,r16
40003c60:	dfc00117 	ldw	ra,4(sp)
40003c64:	dc000017 	ldw	r16,0(sp)
40003c68:	dec00204 	addi	sp,sp,8
40003c6c:	0003e941 	jmpi	40003e94 <__cxa_free_exception>
40003c70:	293ff817 	ldw	r4,-32(r5)
40003c74:	00034ec0 	call	400034ec <_ZN10__cxxabiv111__terminateEPFvvE>

40003c78 <__cxa_throw>:
40003c78:	defffb04 	addi	sp,sp,-20
40003c7c:	dfc00415 	stw	ra,16(sp)
40003c80:	dcc00315 	stw	r19,12(sp)
40003c84:	dc800215 	stw	r18,8(sp)
40003c88:	2827883a 	mov	r19,r5
40003c8c:	3025883a 	mov	r18,r6
40003c90:	dc400115 	stw	r17,4(sp)
40003c94:	dc000015 	stw	r16,0(sp)
40003c98:	2021883a 	mov	r16,r4
40003c9c:	00032140 	call	40003214 <__cxa_get_globals>
40003ca0:	10c00117 	ldw	r3,4(r2)
40003ca4:	847ffb04 	addi	r17,r16,-20
40003ca8:	18c00044 	addi	r3,r3,1
40003cac:	10c00115 	stw	r3,4(r2)
40003cb0:	00800044 	movi	r2,1
40003cb4:	80bfef15 	stw	r2,-68(r16)
40003cb8:	84fff015 	stw	r19,-64(r16)
40003cbc:	84bff115 	stw	r18,-60(r16)
40003cc0:	00036240 	call	40003624 <_ZSt14get_unexpectedv>
40003cc4:	80bff215 	stw	r2,-56(r16)
40003cc8:	00036000 	call	40003600 <_ZSt13get_terminatev>
40003ccc:	80bff315 	stw	r2,-52(r16)
40003cd0:	0090caf4 	movhi	r2,17195
40003cd4:	108ac004 	addi	r2,r2,11008
40003cd8:	80bffb15 	stw	r2,-20(r16)
40003cdc:	0091d3b4 	movhi	r2,18254
40003ce0:	109550c4 	addi	r2,r2,21827
40003ce4:	80bffc15 	stw	r2,-16(r16)
40003ce8:	00900034 	movhi	r2,16384
40003cec:	108f0d04 	addi	r2,r2,15412
40003cf0:	8809883a 	mov	r4,r17
40003cf4:	80bffd15 	stw	r2,-12(r16)
40003cf8:	0007c3c0 	call	40007c3c <_Unwind_SjLj_RaiseException>
40003cfc:	8809883a 	mov	r4,r17
40003d00:	00039c00 	call	400039c0 <__cxa_begin_catch>
40003d04:	00035ac0 	call	400035ac <_ZSt9terminatev>

40003d08 <__cxa_rethrow>:
40003d08:	defffe04 	addi	sp,sp,-8
40003d0c:	dfc00115 	stw	ra,4(sp)
40003d10:	dc000015 	stw	r16,0(sp)
40003d14:	00032140 	call	40003214 <__cxa_get_globals>
40003d18:	10c00117 	ldw	r3,4(r2)
40003d1c:	11000017 	ldw	r4,0(r2)
40003d20:	18c00044 	addi	r3,r3,1
40003d24:	10c00115 	stw	r3,4(r2)
40003d28:	20001126 	beq	r4,zero,40003d70 <__cxa_rethrow+0x68>
40003d2c:	21400b17 	ldw	r5,44(r4)
40003d30:	01ef3574 	movhi	r7,48341
40003d34:	39f54004 	addi	r7,r7,-11008
40003d38:	29cf883a 	add	r7,r5,r7
40003d3c:	20c00c17 	ldw	r3,48(r4)
40003d40:	394d803a 	cmpltu	r6,r7,r5
40003d44:	016e2cb4 	movhi	r5,47282
40003d48:	296aaf04 	addi	r5,r5,-21828
40003d4c:	1947883a 	add	r3,r3,r5
40003d50:	30c7883a 	add	r3,r6,r3
40003d54:	18000726 	beq	r3,zero,40003d74 <__cxa_rethrow+0x6c>
40003d58:	10000015 	stw	zero,0(r2)
40003d5c:	24000b04 	addi	r16,r4,44
40003d60:	8009883a 	mov	r4,r16
40003d64:	0007d940 	call	40007d94 <_Unwind_SjLj_Resume_or_Rethrow>
40003d68:	8009883a 	mov	r4,r16
40003d6c:	00039c00 	call	400039c0 <__cxa_begin_catch>
40003d70:	00035ac0 	call	400035ac <_ZSt9terminatev>
40003d74:	00c00044 	movi	r3,1
40003d78:	19fff736 	bltu	r3,r7,40003d58 <__alt_data_end+0xc0003d58>
40003d7c:	20800517 	ldw	r2,20(r4)
40003d80:	0085c83a 	sub	r2,zero,r2
40003d84:	20800515 	stw	r2,20(r4)
40003d88:	003ff406 	br	40003d5c <__alt_data_end+0xc0003d5c>

40003d8c <_ZNSt9type_infoD1Ev>:
40003d8c:	f800283a 	ret

40003d90 <_ZNKSt9type_info14__is_pointer_pEv>:
40003d90:	0005883a 	mov	r2,zero
40003d94:	f800283a 	ret

40003d98 <_ZNKSt9type_info15__is_function_pEv>:
40003d98:	0005883a 	mov	r2,zero
40003d9c:	f800283a 	ret

40003da0 <_ZNKSt9type_info11__do_upcastEPKN10__cxxabiv117__class_type_infoEPPv>:
40003da0:	0005883a 	mov	r2,zero
40003da4:	f800283a 	ret

40003da8 <_ZNSt9type_infoD0Ev>:
40003da8:	00034e81 	jmpi	400034e8 <_ZdlPv>

40003dac <_ZNKSt9type_info10__do_catchEPKS_PPvj>:
40003dac:	21000117 	ldw	r4,4(r4)
40003db0:	29400117 	ldw	r5,4(r5)
40003db4:	21400c26 	beq	r4,r5,40003de8 <_ZNKSt9type_info10__do_catchEPKS_PPvj+0x3c>
40003db8:	20c00007 	ldb	r3,0(r4)
40003dbc:	00800a84 	movi	r2,42
40003dc0:	18800726 	beq	r3,r2,40003de0 <_ZNKSt9type_info10__do_catchEPKS_PPvj+0x34>
40003dc4:	deffff04 	addi	sp,sp,-4
40003dc8:	dfc00015 	stw	ra,0(sp)
40003dcc:	0008d480 	call	40008d48 <strcmp>
40003dd0:	1005003a 	cmpeq	r2,r2,zero
40003dd4:	dfc00017 	ldw	ra,0(sp)
40003dd8:	dec00104 	addi	sp,sp,4
40003ddc:	f800283a 	ret
40003de0:	0005883a 	mov	r2,zero
40003de4:	f800283a 	ret
40003de8:	00800044 	movi	r2,1
40003dec:	f800283a 	ret

40003df0 <__cxa_allocate_exception>:
40003df0:	defffd04 	addi	sp,sp,-12
40003df4:	dc400115 	stw	r17,4(sp)
40003df8:	24401104 	addi	r17,r4,68
40003dfc:	8809883a 	mov	r4,r17
40003e00:	dc000015 	stw	r16,0(sp)
40003e04:	dfc00215 	stw	ra,8(sp)
40003e08:	0007f300 	call	40007f30 <malloc>
40003e0c:	1021883a 	mov	r16,r2
40003e10:	10000a26 	beq	r2,zero,40003e3c <__cxa_allocate_exception+0x4c>
40003e14:	8009883a 	mov	r4,r16
40003e18:	000b883a 	mov	r5,zero
40003e1c:	01801104 	movi	r6,68
40003e20:	00087000 	call	40008700 <memset>
40003e24:	80801104 	addi	r2,r16,68
40003e28:	dfc00217 	ldw	ra,8(sp)
40003e2c:	dc400117 	ldw	r17,4(sp)
40003e30:	dc000017 	ldw	r16,0(sp)
40003e34:	dec00304 	addi	sp,sp,12
40003e38:	f800283a 	ret
40003e3c:	015000b4 	movhi	r5,16386
40003e40:	29621904 	addi	r5,r5,-30620
40003e44:	00808004 	movi	r2,512
40003e48:	29800017 	ldw	r6,0(r5)
40003e4c:	14400736 	bltu	r2,r17,40003e6c <__cxa_allocate_exception+0x7c>
40003e50:	3005883a 	mov	r2,r6
40003e54:	01000104 	movi	r4,4
40003e58:	10c0004c 	andi	r3,r2,1
40003e5c:	18000426 	beq	r3,zero,40003e70 <__cxa_allocate_exception+0x80>
40003e60:	84000044 	addi	r16,r16,1
40003e64:	1004d07a 	srli	r2,r2,1
40003e68:	813ffb1e 	bne	r16,r4,40003e58 <__alt_data_end+0xc0003e58>
40003e6c:	00035ac0 	call	400035ac <_ZSt9terminatev>
40003e70:	00800044 	movi	r2,1
40003e74:	1404983a 	sll	r2,r2,r16
40003e78:	8020927a 	slli	r16,r16,9
40003e7c:	118cb03a 	or	r6,r2,r6
40003e80:	009001b4 	movhi	r2,16390
40003e84:	108e6904 	addi	r2,r2,14756
40003e88:	29800015 	stw	r6,0(r5)
40003e8c:	80a1883a 	add	r16,r16,r2
40003e90:	003fe006 	br	40003e14 <__alt_data_end+0xc0003e14>

40003e94 <__cxa_free_exception>:
40003e94:	009001b4 	movhi	r2,16390
40003e98:	108e6904 	addi	r2,r2,14756
40003e9c:	20800236 	bltu	r4,r2,40003ea8 <__cxa_free_exception+0x14>
40003ea0:	10c20004 	addi	r3,r2,2048
40003ea4:	20c00236 	bltu	r4,r3,40003eb0 <__cxa_free_exception+0x1c>
40003ea8:	213fef04 	addi	r4,r4,-68
40003eac:	0007f441 	jmpi	40007f44 <free>
40003eb0:	2089c83a 	sub	r4,r4,r2
40003eb4:	2008d27a 	srli	r4,r4,9
40003eb8:	015000b4 	movhi	r5,16386
40003ebc:	29621904 	addi	r5,r5,-30620
40003ec0:	00ffff84 	movi	r3,-2
40003ec4:	28800017 	ldw	r2,0(r5)
40003ec8:	1908183a 	rol	r4,r3,r4
40003ecc:	2088703a 	and	r4,r4,r2
40003ed0:	29000015 	stw	r4,0(r5)
40003ed4:	f800283a 	ret

40003ed8 <__cxa_allocate_dependent_exception>:
40003ed8:	defffe04 	addi	sp,sp,-8
40003edc:	01001004 	movi	r4,64
40003ee0:	dc000015 	stw	r16,0(sp)
40003ee4:	dfc00115 	stw	ra,4(sp)
40003ee8:	0007f300 	call	40007f30 <malloc>
40003eec:	1021883a 	mov	r16,r2
40003ef0:	10000926 	beq	r2,zero,40003f18 <__cxa_allocate_dependent_exception+0x40>
40003ef4:	8009883a 	mov	r4,r16
40003ef8:	000b883a 	mov	r5,zero
40003efc:	01801004 	movi	r6,64
40003f00:	00087000 	call	40008700 <memset>
40003f04:	8005883a 	mov	r2,r16
40003f08:	dfc00117 	ldw	ra,4(sp)
40003f0c:	dc000017 	ldw	r16,0(sp)
40003f10:	dec00204 	addi	sp,sp,8
40003f14:	f800283a 	ret
40003f18:	01d000b4 	movhi	r7,16386
40003f1c:	39e21804 	addi	r7,r7,-30624
40003f20:	39800017 	ldw	r6,0(r7)
40003f24:	0005883a 	mov	r2,zero
40003f28:	01400104 	movi	r5,4
40003f2c:	3007883a 	mov	r3,r6
40003f30:	1900004c 	andi	r4,r3,1
40003f34:	20000426 	beq	r4,zero,40003f48 <__cxa_allocate_dependent_exception+0x70>
40003f38:	10800044 	addi	r2,r2,1
40003f3c:	1806d07a 	srli	r3,r3,1
40003f40:	117ffb1e 	bne	r2,r5,40003f30 <__alt_data_end+0xc0003f30>
40003f44:	00035ac0 	call	400035ac <_ZSt9terminatev>
40003f48:	00c00044 	movi	r3,1
40003f4c:	1886983a 	sll	r3,r3,r2
40003f50:	100491ba 	slli	r2,r2,6
40003f54:	041001b4 	movhi	r16,16390
40003f58:	198cb03a 	or	r6,r3,r6
40003f5c:	840e2904 	addi	r16,r16,14500
40003f60:	39800015 	stw	r6,0(r7)
40003f64:	1421883a 	add	r16,r2,r16
40003f68:	003fe206 	br	40003ef4 <__alt_data_end+0xc0003ef4>

40003f6c <__cxa_free_dependent_exception>:
40003f6c:	009001b4 	movhi	r2,16390
40003f70:	108e2904 	addi	r2,r2,14500
40003f74:	20800236 	bltu	r4,r2,40003f80 <__cxa_free_dependent_exception+0x14>
40003f78:	10c04004 	addi	r3,r2,256
40003f7c:	20c00136 	bltu	r4,r3,40003f84 <__cxa_free_dependent_exception+0x18>
40003f80:	0007f441 	jmpi	40007f44 <free>
40003f84:	2089c83a 	sub	r4,r4,r2
40003f88:	2008d1ba 	srli	r4,r4,6
40003f8c:	015000b4 	movhi	r5,16386
40003f90:	29621804 	addi	r5,r5,-30624
40003f94:	00ffff84 	movi	r3,-2
40003f98:	28800017 	ldw	r2,0(r5)
40003f9c:	1908183a 	rol	r4,r3,r4
40003fa0:	2088703a 	and	r4,r4,r2
40003fa4:	29000015 	stw	r4,0(r5)
40003fa8:	f800283a 	ret

40003fac <_ZNSt9exceptionD1Ev>:
40003fac:	f800283a 	ret

40003fb0 <_ZNSt13bad_exceptionD1Ev>:
40003fb0:	f800283a 	ret

40003fb4 <_ZNKSt9exception4whatEv>:
40003fb4:	00900074 	movhi	r2,16385
40003fb8:	10934404 	addi	r2,r2,19728
40003fbc:	f800283a 	ret

40003fc0 <_ZNKSt13bad_exception4whatEv>:
40003fc0:	00900074 	movhi	r2,16385
40003fc4:	10934804 	addi	r2,r2,19744
40003fc8:	f800283a 	ret

40003fcc <_ZNSt9exceptionD0Ev>:
40003fcc:	00034e81 	jmpi	400034e8 <_ZdlPv>

40003fd0 <_ZNSt13bad_exceptionD0Ev>:
40003fd0:	00034e81 	jmpi	400034e8 <_ZdlPv>

40003fd4 <_ZN10__cxxabiv115__forced_unwindD1Ev>:
40003fd4:	f800283a 	ret

40003fd8 <_ZN10__cxxabiv115__forced_unwindD0Ev>:
40003fd8:	00034e81 	jmpi	400034e8 <_ZdlPv>

40003fdc <_ZN10__cxxabiv119__foreign_exceptionD1Ev>:
40003fdc:	f800283a 	ret

40003fe0 <_ZN10__cxxabiv119__foreign_exceptionD0Ev>:
40003fe0:	00034e81 	jmpi	400034e8 <_ZdlPv>

40003fe4 <_ZSt15set_new_handlerPFvvE>:
40003fe4:	00d000b4 	movhi	r3,16386
40003fe8:	18e21a04 	addi	r3,r3,-30616
40003fec:	18800017 	ldw	r2,0(r3)
40003ff0:	19000015 	stw	r4,0(r3)
40003ff4:	f800283a 	ret

40003ff8 <_ZSt15get_new_handlerv>:
40003ff8:	009000b4 	movhi	r2,16386
40003ffc:	10a21a04 	addi	r2,r2,-30616
40004000:	10800017 	ldw	r2,0(r2)
40004004:	f800283a 	ret

40004008 <__cxa_pure_virtual>:
40004008:	01500074 	movhi	r5,16385
4000400c:	deffff04 	addi	sp,sp,-4
40004010:	29537e04 	addi	r5,r5,19960
40004014:	01000084 	movi	r4,2
40004018:	018006c4 	movi	r6,27
4000401c:	dfc00015 	stw	ra,0(sp)
40004020:	0012ed00 	call	40012ed0 <write>
40004024:	00035ac0 	call	400035ac <_ZSt9terminatev>

40004028 <__cxa_deleted_virtual>:
40004028:	01500074 	movhi	r5,16385
4000402c:	deffff04 	addi	sp,sp,-4
40004030:	29538504 	addi	r5,r5,19988
40004034:	01000084 	movi	r4,2
40004038:	01800784 	movi	r6,30
4000403c:	dfc00015 	stw	ra,0(sp)
40004040:	0012ed00 	call	40012ed0 <write>
40004044:	00035ac0 	call	400035ac <_ZSt9terminatev>

40004048 <log2>:
	double log2(double x)		/* wrapper log2 */
#else
	double log2(x)			/* wrapper log2 */
	double x;
#endif
{
40004048:	defffc04 	addi	sp,sp,-16
4000404c:	dfc00315 	stw	ra,12(sp)
40004050:	df000215 	stw	fp,8(sp)
40004054:	df000204 	addi	fp,sp,8
40004058:	e13ffe15 	stw	r4,-8(fp)
4000405c:	e17fff15 	stw	r5,-4(fp)
  return (log(x) / M_LOG2_E);
40004060:	e13ffe17 	ldw	r4,-8(fp)
40004064:	e17fff17 	ldw	r5,-4(fp)
40004068:	00040c40 	call	400040c4 <log>
4000406c:	100b883a 	mov	r5,r2
40004070:	180d883a 	mov	r6,r3
40004074:	2809883a 	mov	r4,r5
40004078:	300b883a 	mov	r5,r6
4000407c:	01bfbeb4 	movhi	r6,65274
40004080:	318e7bc4 	addi	r6,r6,14831
40004084:	01cff9b4 	movhi	r7,16358
40004088:	39cb9084 	addi	r7,r7,11842
4000408c:	0005a480 	call	40005a48 <__divdf3>
40004090:	100f883a 	mov	r7,r2
40004094:	1811883a 	mov	r8,r3
40004098:	380b883a 	mov	r5,r7
4000409c:	400d883a 	mov	r6,r8
400040a0:	2807883a 	mov	r3,r5
400040a4:	3009883a 	mov	r4,r6
}
400040a8:	1805883a 	mov	r2,r3
400040ac:	2007883a 	mov	r3,r4
400040b0:	e037883a 	mov	sp,fp
400040b4:	dfc00117 	ldw	ra,4(sp)
400040b8:	df000017 	ldw	fp,0(sp)
400040bc:	dec00204 	addi	sp,sp,8
400040c0:	f800283a 	ret

400040c4 <log>:
	double log(double x)		/* wrapper log */
#else
	double log(x)			/* wrapper log */
	double x;
#endif
{
400040c4:	defff104 	addi	sp,sp,-60
400040c8:	dfc00e15 	stw	ra,56(sp)
400040cc:	df000d15 	stw	fp,52(sp)
400040d0:	df000d04 	addi	fp,sp,52
400040d4:	e13ffe15 	stw	r4,-8(fp)
400040d8:	e17fff15 	stw	r5,-4(fp)
#ifdef _IEEE_LIBM
	return __ieee754_log(x);
#else
	double z;
	struct exception exc;
	z = __ieee754_log(x);
400040dc:	e13ffe17 	ldw	r4,-8(fp)
400040e0:	e17fff17 	ldw	r5,-4(fp)
400040e4:	00042b80 	call	400042b8 <__ieee754_log>
400040e8:	e0bff315 	stw	r2,-52(fp)
400040ec:	e0fff415 	stw	r3,-48(fp)
	if(_LIB_VERSION == _IEEE_ || isnan(x) || x > 0.0) return z;
400040f0:	00900074 	movhi	r2,16385
400040f4:	109b2104 	addi	r2,r2,27780
400040f8:	10800017 	ldw	r2,0(r2)
400040fc:	10bfffe0 	cmpeqi	r2,r2,-1
40004100:	10000a1e 	bne	r2,zero,4000412c <log+0x68>
40004104:	e13ffe17 	ldw	r4,-8(fp)
40004108:	e17fff17 	ldw	r5,-4(fp)
4000410c:	0004ec00 	call	40004ec0 <__fpclassifyd>
40004110:	10000626 	beq	r2,zero,4000412c <log+0x68>
40004114:	e13ffe17 	ldw	r4,-8(fp)
40004118:	e17fff17 	ldw	r5,-4(fp)
4000411c:	000d883a 	mov	r6,zero
40004120:	000f883a 	mov	r7,zero
40004124:	00063980 	call	40006398 <__gedf2>
40004128:	0080030e 	bge	zero,r2,40004138 <log+0x74>
4000412c:	e0bff317 	ldw	r2,-52(fp)
40004130:	e0fff417 	ldw	r3,-48(fp)
40004134:	00005706 	br	40004294 <log+0x1d0>
#define HUGE_VAL inf
	double inf = 0.0;

	SET_HIGH_WORD(inf,0x7ff00000);	/* set inf to infinite */
#endif
	exc.name = "log";
40004138:	00900074 	movhi	r2,16385
4000413c:	10938d04 	addi	r2,r2,20020
40004140:	e0bff615 	stw	r2,-40(fp)
	exc.err = 0;
40004144:	e03ffd15 	stw	zero,-12(fp)
	exc.arg1 = x;
40004148:	e0bffe17 	ldw	r2,-8(fp)
4000414c:	e0bff715 	stw	r2,-36(fp)
40004150:	e0bfff17 	ldw	r2,-4(fp)
40004154:	e0bff815 	stw	r2,-32(fp)
	exc.arg2 = x;
40004158:	e0bffe17 	ldw	r2,-8(fp)
4000415c:	e0bff915 	stw	r2,-28(fp)
40004160:	e0bfff17 	ldw	r2,-4(fp)
40004164:	e0bffa15 	stw	r2,-24(fp)
	if (_LIB_VERSION == _SVID_)
40004168:	00900074 	movhi	r2,16385
4000416c:	109b2104 	addi	r2,r2,27780
40004170:	10800017 	ldw	r2,0(r2)
40004174:	1000061e 	bne	r2,zero,40004190 <log+0xcc>
           exc.retval = -HUGE;
40004178:	00b80034 	movhi	r2,57344
4000417c:	e0bffb15 	stw	r2,-20(fp)
40004180:	00b1fc34 	movhi	r2,51184
40004184:	10bfffc4 	addi	r2,r2,-1
40004188:	e0bffc15 	stw	r2,-16(fp)
4000418c:	00000306 	br	4000419c <log+0xd8>
	else
	   exc.retval = -HUGE_VAL;
40004190:	e03ffb15 	stw	zero,-20(fp)
40004194:	00bffc34 	movhi	r2,65520
40004198:	e0bffc15 	stw	r2,-16(fp)
	if(x==0.0) {
4000419c:	e13ffe17 	ldw	r4,-8(fp)
400041a0:	e17fff17 	ldw	r5,-4(fp)
400041a4:	000d883a 	mov	r6,zero
400041a8:	000f883a 	mov	r7,zero
400041ac:	00063140 	call	40006314 <__eqdf2>
400041b0:	1000151e 	bne	r2,zero,40004208 <log+0x144>
	    /* log(0) */
	    exc.type = SING;
400041b4:	00800084 	movi	r2,2
400041b8:	e0bff515 	stw	r2,-44(fp)
	    if (_LIB_VERSION == _POSIX_)
400041bc:	00900074 	movhi	r2,16385
400041c0:	109b2104 	addi	r2,r2,27780
400041c4:	10800017 	ldw	r2,0(r2)
400041c8:	10800098 	cmpnei	r2,r2,2
400041cc:	1000051e 	bne	r2,zero,400041e4 <log+0x120>
	       errno = ERANGE;
400041d0:	0007ee80 	call	40007ee8 <__errno>
400041d4:	1007883a 	mov	r3,r2
400041d8:	00800884 	movi	r2,34
400041dc:	18800015 	stw	r2,0(r3)
400041e0:	00002406 	br	40004274 <log+0x1b0>
	    else if (!matherr(&exc)) {
400041e4:	e0bff504 	addi	r2,fp,-44
400041e8:	1009883a 	mov	r4,r2
400041ec:	0004fc40 	call	40004fc4 <matherr>
400041f0:	1000201e 	bne	r2,zero,40004274 <log+0x1b0>
	       errno = ERANGE;
400041f4:	0007ee80 	call	40007ee8 <__errno>
400041f8:	1007883a 	mov	r3,r2
400041fc:	00800884 	movi	r2,34
40004200:	18800015 	stw	r2,0(r3)
40004204:	00001b06 	br	40004274 <log+0x1b0>
	    }
	} else { 
	    /* log(x<0) */
	    exc.type = DOMAIN;
40004208:	00800044 	movi	r2,1
4000420c:	e0bff515 	stw	r2,-44(fp)
	    if (_LIB_VERSION == _POSIX_)
40004210:	00900074 	movhi	r2,16385
40004214:	109b2104 	addi	r2,r2,27780
40004218:	10800017 	ldw	r2,0(r2)
4000421c:	10800098 	cmpnei	r2,r2,2
40004220:	1000051e 	bne	r2,zero,40004238 <log+0x174>
	       errno = EDOM;
40004224:	0007ee80 	call	40007ee8 <__errno>
40004228:	1007883a 	mov	r3,r2
4000422c:	00800844 	movi	r2,33
40004230:	18800015 	stw	r2,0(r3)
40004234:	00000806 	br	40004258 <log+0x194>
	    else if (!matherr(&exc)) {
40004238:	e0bff504 	addi	r2,fp,-44
4000423c:	1009883a 	mov	r4,r2
40004240:	0004fc40 	call	40004fc4 <matherr>
40004244:	1000041e 	bne	r2,zero,40004258 <log+0x194>
	       errno = EDOM;
40004248:	0007ee80 	call	40007ee8 <__errno>
4000424c:	1007883a 	mov	r3,r2
40004250:	00800844 	movi	r2,33
40004254:	18800015 	stw	r2,0(r3)
	    }
            exc.retval = nan("");
40004258:	01100074 	movhi	r4,16385
4000425c:	21138e04 	addi	r4,r4,20024
40004260:	000502c0 	call	4000502c <nan>
40004264:	1009883a 	mov	r4,r2
40004268:	180b883a 	mov	r5,r3
4000426c:	e13ffb15 	stw	r4,-20(fp)
40004270:	e17ffc15 	stw	r5,-16(fp)
        }
	if (exc.err != 0)
40004274:	e0bffd17 	ldw	r2,-12(fp)
40004278:	10000426 	beq	r2,zero,4000428c <log+0x1c8>
           errno = exc.err;
4000427c:	0007ee80 	call	40007ee8 <__errno>
40004280:	1007883a 	mov	r3,r2
40004284:	e0bffd17 	ldw	r2,-12(fp)
40004288:	18800015 	stw	r2,0(r3)
        return exc.retval; 
4000428c:	e0bffb17 	ldw	r2,-20(fp)
40004290:	e0fffc17 	ldw	r3,-16(fp)
40004294:	1009883a 	mov	r4,r2
40004298:	180b883a 	mov	r5,r3
#endif
}
4000429c:	2005883a 	mov	r2,r4
400042a0:	2807883a 	mov	r3,r5
400042a4:	e037883a 	mov	sp,fp
400042a8:	dfc00117 	ldw	ra,4(sp)
400042ac:	df000017 	ldw	fp,0(sp)
400042b0:	dec00204 	addi	sp,sp,8
400042b4:	f800283a 	ret

400042b8 <__ieee754_log>:
	double __ieee754_log(double x)
#else
	double __ieee754_log(x)
	double x;
#endif
{
400042b8:	deffdb04 	addi	sp,sp,-148
400042bc:	dfc02415 	stw	ra,144(sp)
400042c0:	df002315 	stw	fp,140(sp)
400042c4:	dcc02215 	stw	r19,136(sp)
400042c8:	dc802115 	stw	r18,132(sp)
400042cc:	dc402015 	stw	r17,128(sp)
400042d0:	dc001f15 	stw	r16,124(sp)
400042d4:	df002304 	addi	fp,sp,140
400042d8:	e13ffa15 	stw	r4,-24(fp)
400042dc:	e17ffb15 	stw	r5,-20(fp)
	double hfsq,f,s,z,R,w,t1,t2,dk;
	__int32_t k,hx,i,j;
	__uint32_t lx;

	EXTRACT_WORDS(hx,lx,x);
400042e0:	e0bffa17 	ldw	r2,-24(fp)
400042e4:	e0bff415 	stw	r2,-48(fp)
400042e8:	e0bffb17 	ldw	r2,-20(fp)
400042ec:	e0bff515 	stw	r2,-44(fp)
400042f0:	e0bff517 	ldw	r2,-44(fp)
400042f4:	e0bfde15 	stw	r2,-136(fp)
400042f8:	e0bff417 	ldw	r2,-48(fp)
400042fc:	e0bfdf15 	stw	r2,-132(fp)

	k=0;
40004300:	e03fdd15 	stw	zero,-140(fp)
	if (hx < 0x00100000) {			/* x < 2**-1022  */
40004304:	e0ffde17 	ldw	r3,-136(fp)
40004308:	00800434 	movhi	r2,16
4000430c:	1880420e 	bge	r3,r2,40004418 <__ieee754_log+0x160>
	    if (((hx&0x7fffffff)|lx)==0) 
40004310:	e0ffde17 	ldw	r3,-136(fp)
40004314:	00a00034 	movhi	r2,32768
40004318:	10bfffc4 	addi	r2,r2,-1
4000431c:	1886703a 	and	r3,r3,r2
40004320:	e0bfdf17 	ldw	r2,-132(fp)
40004324:	1884b03a 	or	r2,r3,r2
40004328:	1000101e 	bne	r2,zero,4000436c <__ieee754_log+0xb4>
		return -two54/zero;		/* log(+-0)=-inf */
4000432c:	0005883a 	mov	r2,zero
40004330:	00d0d434 	movhi	r3,17232
40004334:	100d883a 	mov	r6,r2
40004338:	19e0003c 	xorhi	r7,r3,32768
4000433c:	0005883a 	mov	r2,zero
40004340:	0007883a 	mov	r3,zero
40004344:	3009883a 	mov	r4,r6
40004348:	380b883a 	mov	r5,r7
4000434c:	100d883a 	mov	r6,r2
40004350:	180f883a 	mov	r7,r3
40004354:	0005a480 	call	40005a48 <__divdf3>
40004358:	1009883a 	mov	r4,r2
4000435c:	180b883a 	mov	r5,r3
40004360:	2005883a 	mov	r2,r4
40004364:	2807883a 	mov	r3,r5
40004368:	0002c806 	br	40004e8c <__ieee754_log+0xbd4>
	    if (hx<0) return (x-x)/zero;	/* log(-#) = NaN */
4000436c:	e0bfde17 	ldw	r2,-136(fp)
40004370:	1000150e 	bge	r2,zero,400043c8 <__ieee754_log+0x110>
40004374:	e13ffa17 	ldw	r4,-24(fp)
40004378:	e17ffb17 	ldw	r5,-20(fp)
4000437c:	e1bffa17 	ldw	r6,-24(fp)
40004380:	e1fffb17 	ldw	r7,-20(fp)
40004384:	0006c7c0 	call	40006c7c <__subdf3>
40004388:	100f883a 	mov	r7,r2
4000438c:	1811883a 	mov	r8,r3
40004390:	380b883a 	mov	r5,r7
40004394:	400d883a 	mov	r6,r8
40004398:	0005883a 	mov	r2,zero
4000439c:	0007883a 	mov	r3,zero
400043a0:	2809883a 	mov	r4,r5
400043a4:	300b883a 	mov	r5,r6
400043a8:	100d883a 	mov	r6,r2
400043ac:	180f883a 	mov	r7,r3
400043b0:	0005a480 	call	40005a48 <__divdf3>
400043b4:	1009883a 	mov	r4,r2
400043b8:	180b883a 	mov	r5,r3
400043bc:	2005883a 	mov	r2,r4
400043c0:	2807883a 	mov	r3,r5
400043c4:	0002b106 	br	40004e8c <__ieee754_log+0xbd4>
	    k -= 54; x *= two54; /* subnormal number, scale up x */
400043c8:	e0bfdd17 	ldw	r2,-140(fp)
400043cc:	10bff284 	addi	r2,r2,-54
400043d0:	e0bfdd15 	stw	r2,-140(fp)
400043d4:	0005883a 	mov	r2,zero
400043d8:	00d0d434 	movhi	r3,17232
400043dc:	e13ffa17 	ldw	r4,-24(fp)
400043e0:	e17ffb17 	ldw	r5,-20(fp)
400043e4:	100d883a 	mov	r6,r2
400043e8:	180f883a 	mov	r7,r3
400043ec:	00065580 	call	40006558 <__muldf3>
400043f0:	1009883a 	mov	r4,r2
400043f4:	180b883a 	mov	r5,r3
400043f8:	e13ffa15 	stw	r4,-24(fp)
400043fc:	e17ffb15 	stw	r5,-20(fp)
	    GET_HIGH_WORD(hx,x);
40004400:	e0bffa17 	ldw	r2,-24(fp)
40004404:	e0bff615 	stw	r2,-40(fp)
40004408:	e0bffb17 	ldw	r2,-20(fp)
4000440c:	e0bff715 	stw	r2,-36(fp)
40004410:	e0bff717 	ldw	r2,-36(fp)
40004414:	e0bfde15 	stw	r2,-136(fp)
	} 
	if (hx >= 0x7ff00000) return x+x;
40004418:	e0ffde17 	ldw	r3,-136(fp)
4000441c:	009ffc34 	movhi	r2,32752
40004420:	18800c16 	blt	r3,r2,40004454 <__ieee754_log+0x19c>
40004424:	e0bffa17 	ldw	r2,-24(fp)
40004428:	e0fffb17 	ldw	r3,-20(fp)
4000442c:	1009883a 	mov	r4,r2
40004430:	180b883a 	mov	r5,r3
40004434:	100d883a 	mov	r6,r2
40004438:	180f883a 	mov	r7,r3
4000443c:	00051ac0 	call	400051ac <__adddf3>
40004440:	1009883a 	mov	r4,r2
40004444:	180b883a 	mov	r5,r3
40004448:	2005883a 	mov	r2,r4
4000444c:	2807883a 	mov	r3,r5
40004450:	00028e06 	br	40004e8c <__ieee754_log+0xbd4>
	k += (hx>>20)-1023;
40004454:	e0bfde17 	ldw	r2,-136(fp)
40004458:	1005d53a 	srai	r2,r2,20
4000445c:	10bf0044 	addi	r2,r2,-1023
40004460:	e0ffdd17 	ldw	r3,-140(fp)
40004464:	1885883a 	add	r2,r3,r2
40004468:	e0bfdd15 	stw	r2,-140(fp)
	hx &= 0x000fffff;
4000446c:	e0ffde17 	ldw	r3,-136(fp)
40004470:	00800434 	movhi	r2,16
40004474:	10bfffc4 	addi	r2,r2,-1
40004478:	1884703a 	and	r2,r3,r2
4000447c:	e0bfde15 	stw	r2,-136(fp)
	i = (hx+0x95f64)&0x100000;
40004480:	e0ffde17 	ldw	r3,-136(fp)
40004484:	00800274 	movhi	r2,9
40004488:	1097d904 	addi	r2,r2,24420
4000448c:	1885883a 	add	r2,r3,r2
40004490:	1080042c 	andhi	r2,r2,16
40004494:	e0bfe015 	stw	r2,-128(fp)
	SET_HIGH_WORD(x,hx|(i^0x3ff00000));	/* normalize x or x/2 */
40004498:	e0bffa17 	ldw	r2,-24(fp)
4000449c:	e0bff815 	stw	r2,-32(fp)
400044a0:	e0bffb17 	ldw	r2,-20(fp)
400044a4:	e0bff915 	stw	r2,-28(fp)
400044a8:	e0bfe017 	ldw	r2,-128(fp)
400044ac:	10cffc3c 	xorhi	r3,r2,16368
400044b0:	e0bfde17 	ldw	r2,-136(fp)
400044b4:	1884b03a 	or	r2,r3,r2
400044b8:	e0bff915 	stw	r2,-28(fp)
400044bc:	e0bff817 	ldw	r2,-32(fp)
400044c0:	e0bffa15 	stw	r2,-24(fp)
400044c4:	e0bff917 	ldw	r2,-28(fp)
400044c8:	e0bffb15 	stw	r2,-20(fp)
	k += (i>>20);
400044cc:	e0bfe017 	ldw	r2,-128(fp)
400044d0:	1005d53a 	srai	r2,r2,20
400044d4:	e0ffdd17 	ldw	r3,-140(fp)
400044d8:	1885883a 	add	r2,r3,r2
400044dc:	e0bfdd15 	stw	r2,-140(fp)
	f = x-1.0;
400044e0:	e13ffa17 	ldw	r4,-24(fp)
400044e4:	e17ffb17 	ldw	r5,-20(fp)
400044e8:	000d883a 	mov	r6,zero
400044ec:	01cffc34 	movhi	r7,16368
400044f0:	0006c7c0 	call	40006c7c <__subdf3>
400044f4:	1009883a 	mov	r4,r2
400044f8:	180b883a 	mov	r5,r3
400044fc:	e13fe115 	stw	r4,-124(fp)
40004500:	e17fe215 	stw	r5,-120(fp)
	if((0x000fffff&(2+hx))<3) {	/* |f| < 2**-20 */
40004504:	e0bfde17 	ldw	r2,-136(fp)
40004508:	10c00084 	addi	r3,r2,2
4000450c:	00800434 	movhi	r2,16
40004510:	10bfffc4 	addi	r2,r2,-1
40004514:	1884703a 	and	r2,r3,r2
40004518:	108000c8 	cmpgei	r2,r2,3
4000451c:	1000a31e 	bne	r2,zero,400047ac <__ieee754_log+0x4f4>
          if(f==zero) { if(k==0) return zero;  else {dk=(double)k;
40004520:	0005883a 	mov	r2,zero
40004524:	0007883a 	mov	r3,zero
40004528:	e13fe117 	ldw	r4,-124(fp)
4000452c:	e17fe217 	ldw	r5,-120(fp)
40004530:	100d883a 	mov	r6,r2
40004534:	180f883a 	mov	r7,r3
40004538:	00063140 	call	40006314 <__eqdf2>
4000453c:	10002e1e 	bne	r2,zero,400045f8 <__ieee754_log+0x340>
40004540:	e0bfdd17 	ldw	r2,-140(fp)
40004544:	1000031e 	bne	r2,zero,40004554 <__ieee754_log+0x29c>
40004548:	0005883a 	mov	r2,zero
4000454c:	0007883a 	mov	r3,zero
40004550:	00024e06 	br	40004e8c <__ieee754_log+0xbd4>
40004554:	e13fdd17 	ldw	r4,-140(fp)
40004558:	00075d40 	call	400075d4 <__floatsidf>
4000455c:	1009883a 	mov	r4,r2
40004560:	180b883a 	mov	r5,r3
40004564:	e13fe315 	stw	r4,-116(fp)
40004568:	e17fe415 	stw	r5,-112(fp)
                               return dk*ln2_hi+dk*ln2_lo;}}
4000456c:	00bfb834 	movhi	r2,65248
40004570:	00cff9b4 	movhi	r3,16358
40004574:	18cb9084 	addi	r3,r3,11842
40004578:	1009883a 	mov	r4,r2
4000457c:	180b883a 	mov	r5,r3
40004580:	e1bfe317 	ldw	r6,-116(fp)
40004584:	e1ffe417 	ldw	r7,-112(fp)
40004588:	00065580 	call	40006558 <__muldf3>
4000458c:	1009883a 	mov	r4,r2
40004590:	180b883a 	mov	r5,r3
40004594:	2021883a 	mov	r16,r4
40004598:	2823883a 	mov	r17,r5
4000459c:	008d5e74 	movhi	r2,13689
400045a0:	108f1d84 	addi	r2,r2,15478
400045a4:	00cf7ab4 	movhi	r3,15850
400045a8:	18ce7bc4 	addi	r3,r3,14831
400045ac:	1009883a 	mov	r4,r2
400045b0:	180b883a 	mov	r5,r3
400045b4:	e1bfe317 	ldw	r6,-116(fp)
400045b8:	e1ffe417 	ldw	r7,-112(fp)
400045bc:	00065580 	call	40006558 <__muldf3>
400045c0:	1009883a 	mov	r4,r2
400045c4:	180b883a 	mov	r5,r3
400045c8:	2005883a 	mov	r2,r4
400045cc:	2807883a 	mov	r3,r5
400045d0:	8009883a 	mov	r4,r16
400045d4:	880b883a 	mov	r5,r17
400045d8:	100d883a 	mov	r6,r2
400045dc:	180f883a 	mov	r7,r3
400045e0:	00051ac0 	call	400051ac <__adddf3>
400045e4:	1009883a 	mov	r4,r2
400045e8:	180b883a 	mov	r5,r3
400045ec:	2005883a 	mov	r2,r4
400045f0:	2807883a 	mov	r3,r5
400045f4:	00022506 	br	40004e8c <__ieee754_log+0xbd4>
	    R = f*f*(0.5-0.33333333333333333*f);
400045f8:	e13fe117 	ldw	r4,-124(fp)
400045fc:	e17fe217 	ldw	r5,-120(fp)
40004600:	e1bfe117 	ldw	r6,-124(fp)
40004604:	e1ffe217 	ldw	r7,-120(fp)
40004608:	00065580 	call	40006558 <__muldf3>
4000460c:	1009883a 	mov	r4,r2
40004610:	180b883a 	mov	r5,r3
40004614:	2021883a 	mov	r16,r4
40004618:	2823883a 	mov	r17,r5
4000461c:	e13fe117 	ldw	r4,-124(fp)
40004620:	e17fe217 	ldw	r5,-120(fp)
40004624:	01955574 	movhi	r6,21845
40004628:	31955544 	addi	r6,r6,21845
4000462c:	01cff574 	movhi	r7,16341
40004630:	39d55544 	addi	r7,r7,21845
40004634:	00065580 	call	40006558 <__muldf3>
40004638:	1009883a 	mov	r4,r2
4000463c:	180b883a 	mov	r5,r3
40004640:	2005883a 	mov	r2,r4
40004644:	2807883a 	mov	r3,r5
40004648:	0009883a 	mov	r4,zero
4000464c:	014ff834 	movhi	r5,16352
40004650:	100d883a 	mov	r6,r2
40004654:	180f883a 	mov	r7,r3
40004658:	0006c7c0 	call	40006c7c <__subdf3>
4000465c:	1009883a 	mov	r4,r2
40004660:	180b883a 	mov	r5,r3
40004664:	2005883a 	mov	r2,r4
40004668:	2807883a 	mov	r3,r5
4000466c:	8009883a 	mov	r4,r16
40004670:	880b883a 	mov	r5,r17
40004674:	100d883a 	mov	r6,r2
40004678:	180f883a 	mov	r7,r3
4000467c:	00065580 	call	40006558 <__muldf3>
40004680:	1009883a 	mov	r4,r2
40004684:	180b883a 	mov	r5,r3
40004688:	e13fe515 	stw	r4,-108(fp)
4000468c:	e17fe615 	stw	r5,-104(fp)
	    if(k==0) return f-R; else {dk=(double)k;
40004690:	e0bfdd17 	ldw	r2,-140(fp)
40004694:	10000a1e 	bne	r2,zero,400046c0 <__ieee754_log+0x408>
40004698:	e13fe117 	ldw	r4,-124(fp)
4000469c:	e17fe217 	ldw	r5,-120(fp)
400046a0:	e1bfe517 	ldw	r6,-108(fp)
400046a4:	e1ffe617 	ldw	r7,-104(fp)
400046a8:	0006c7c0 	call	40006c7c <__subdf3>
400046ac:	1009883a 	mov	r4,r2
400046b0:	180b883a 	mov	r5,r3
400046b4:	2005883a 	mov	r2,r4
400046b8:	2807883a 	mov	r3,r5
400046bc:	0001f306 	br	40004e8c <__ieee754_log+0xbd4>
400046c0:	e13fdd17 	ldw	r4,-140(fp)
400046c4:	00075d40 	call	400075d4 <__floatsidf>
400046c8:	1009883a 	mov	r4,r2
400046cc:	180b883a 	mov	r5,r3
400046d0:	e13fe315 	stw	r4,-116(fp)
400046d4:	e17fe415 	stw	r5,-112(fp)
	    	     return dk*ln2_hi-((R-dk*ln2_lo)-f);}
400046d8:	00bfb834 	movhi	r2,65248
400046dc:	00cff9b4 	movhi	r3,16358
400046e0:	18cb9084 	addi	r3,r3,11842
400046e4:	1009883a 	mov	r4,r2
400046e8:	180b883a 	mov	r5,r3
400046ec:	e1bfe317 	ldw	r6,-116(fp)
400046f0:	e1ffe417 	ldw	r7,-112(fp)
400046f4:	00065580 	call	40006558 <__muldf3>
400046f8:	1009883a 	mov	r4,r2
400046fc:	180b883a 	mov	r5,r3
40004700:	2021883a 	mov	r16,r4
40004704:	2823883a 	mov	r17,r5
40004708:	008d5e74 	movhi	r2,13689
4000470c:	108f1d84 	addi	r2,r2,15478
40004710:	00cf7ab4 	movhi	r3,15850
40004714:	18ce7bc4 	addi	r3,r3,14831
40004718:	1009883a 	mov	r4,r2
4000471c:	180b883a 	mov	r5,r3
40004720:	e1bfe317 	ldw	r6,-116(fp)
40004724:	e1ffe417 	ldw	r7,-112(fp)
40004728:	00065580 	call	40006558 <__muldf3>
